
========================================================================

** ELF Header Information

    File Name: .\obj\template.axf

    Machine class: ELFCLASS32 (32-bit)
    Data encoding: ELFDATA2LSB (Little endian)
    Header version: EV_CURRENT (Current version)
    Operating System ABI: none
    ABI Version: 0
    File Type: ET_EXEC (Executable) (2)
    Machine: EM_ARM (ARM)

    Image Entry point: 0x000002e5
    Flags: EF_ARM_HASENTRY (0x05000002)

    ARM ELF revision: 5 (ABI version 2)

    Conforms to Base float procedure-call standard

    Built with
    Component: ARM Compiler 5.06 update 6 (build 750) Tool: armasm [4d35ec]
    Component: ARM Compiler 5.06 update 6 (build 750) Tool: armlink [4d35ed]

    Header size: 52 bytes (0x34)
    Program header entry size: 32 bytes (0x20)
    Section header entry size: 40 bytes (0x28)

    Program header entries: 1
    Section header entries: 16

    Program header offset: 365668 (0x00059464)
    Section header offset: 365700 (0x00059484)

    Section header string table index: 15

========================================================================

** Program header #0 (PT_LOAD) [PF_X + PF_W + PF_R + PF_ARM_ENTRY]
    Size : 30804 bytes (12068 bytes in file)
    Virtual address: 0x00000000 (Alignment 8)


========================================================================

** Section #1 'ER_RO' (SHT_PROGBITS) [SHF_ALLOC + SHF_EXECINSTR]
    Size   : 11868 bytes (alignment 4)
    Address: 0x00000000

    $d.realdata
    RESET
    __Vectors
        0x00000000:    200049f8    .I.     DCD    536889848
        0x00000004:    000002e5    ....    DCD    741
        0x00000008:    00000325    %...    DCD    805
        0x0000000c:    00000209    ....    DCD    521
        0x00000010:    00000329    )...    DCD    809
        0x00000014:    0000032b    +...    DCD    811
        0x00000018:    0000032d    -...    DCD    813
        0x0000001c:    00000000    ....    DCD    0
        0x00000020:    00000000    ....    DCD    0
        0x00000024:    00000000    ....    DCD    0
        0x00000028:    00000000    ....    DCD    0
        0x0000002c:    00000225    %...    DCD    549
        0x00000030:    00000331    1...    DCD    817
        0x00000034:    00000000    ....    DCD    0
        0x00000038:    00000281    ....    DCD    641
        0x0000003c:    00000a11    ....    DCD    2577
        0x00000040:    00000337    7...    DCD    823
        0x00000044:    00000337    7...    DCD    823
        0x00000048:    00000337    7...    DCD    823
        0x0000004c:    00000337    7...    DCD    823
        0x00000050:    00000337    7...    DCD    823
        0x00000054:    00000337    7...    DCD    823
        0x00000058:    00000337    7...    DCD    823
        0x0000005c:    00000337    7...    DCD    823
        0x00000060:    00000337    7...    DCD    823
        0x00000064:    00000337    7...    DCD    823
        0x00000068:    00000337    7...    DCD    823
        0x0000006c:    00000337    7...    DCD    823
        0x00000070:    00000337    7...    DCD    823
        0x00000074:    00000337    7...    DCD    823
        0x00000078:    00000337    7...    DCD    823
        0x0000007c:    00000337    7...    DCD    823
        0x00000080:    00000337    7...    DCD    823
        0x00000084:    00000337    7...    DCD    823
        0x00000088:    00000337    7...    DCD    823
        0x0000008c:    00000337    7...    DCD    823
        0x00000090:    00000337    7...    DCD    823
        0x00000094:    00000337    7...    DCD    823
        0x00000098:    00000337    7...    DCD    823
        0x0000009c:    00000337    7...    DCD    823
        0x000000a0:    00000337    7...    DCD    823
        0x000000a4:    00000337    7...    DCD    823
        0x000000a8:    00000337    7...    DCD    823
        0x000000ac:    00000337    7...    DCD    823
        0x000000b0:    00000337    7...    DCD    823
        0x000000b4:    00000337    7...    DCD    823
        0x000000b8:    00000337    7...    DCD    823
        0x000000bc:    00000337    7...    DCD    823
        0x000000c0:    00000337    7...    DCD    823
        0x000000c4:    00000c21    !...    DCD    3105
        0x000000c8:    00000337    7...    DCD    823
        0x000000cc:    00000337    7...    DCD    823
        0x000000d0:    00000337    7...    DCD    823
        0x000000d4:    00000337    7...    DCD    823
        0x000000d8:    00000337    7...    DCD    823
        0x000000dc:    00000337    7...    DCD    823
        0x000000e0:    00000337    7...    DCD    823
        0x000000e4:    00000337    7...    DCD    823
        0x000000e8:    00000337    7...    DCD    823
        0x000000ec:    00000337    7...    DCD    823
        0x000000f0:    00000337    7...    DCD    823
        0x000000f4:    00000337    7...    DCD    823
        0x000000f8:    00000337    7...    DCD    823
        0x000000fc:    00000337    7...    DCD    823
        0x00000100:    00000337    7...    DCD    823
        0x00000104:    00000337    7...    DCD    823
        0x00000108:    00000337    7...    DCD    823
        0x0000010c:    00000337    7...    DCD    823
        0x00000110:    00000337    7...    DCD    823
        0x00000114:    00000337    7...    DCD    823
        0x00000118:    00000337    7...    DCD    823
        0x0000011c:    00000337    7...    DCD    823
        0x00000120:    00000337    7...    DCD    823
        0x00000124:    00000337    7...    DCD    823
        0x00000128:    00000337    7...    DCD    823
        0x0000012c:    00000337    7...    DCD    823
        0x00000130:    00000337    7...    DCD    823
        0x00000134:    00000337    7...    DCD    823
        0x00000138:    00000337    7...    DCD    823
        0x0000013c:    00000337    7...    DCD    823
        0x00000140:    00000337    7...    DCD    823
        0x00000144:    00000337    7...    DCD    823
        0x00000148:    00000337    7...    DCD    823
        0x0000014c:    00000337    7...    DCD    823
        0x00000150:    00000337    7...    DCD    823
        0x00000154:    00000337    7...    DCD    823
        0x00000158:    00000337    7...    DCD    823
        0x0000015c:    00000337    7...    DCD    823
        0x00000160:    00000337    7...    DCD    823
        0x00000164:    00000337    7...    DCD    823
        0x00000168:    00000337    7...    DCD    823
        0x0000016c:    00000337    7...    DCD    823
        0x00000170:    00000337    7...    DCD    823
        0x00000174:    00000337    7...    DCD    823
        0x00000178:    00000337    7...    DCD    823
        0x0000017c:    00000337    7...    DCD    823
        0x00000180:    00000337    7...    DCD    823
        0x00000184:    00000337    7...    DCD    823
        0x00000188:    00000337    7...    DCD    823
        0x0000018c:    00000337    7...    DCD    823
        0x00000190:    00000337    7...    DCD    823
        0x00000194:    00000337    7...    DCD    823
        0x00000198:    00000337    7...    DCD    823
        0x0000019c:    00000337    7...    DCD    823
        0x000001a0:    00000337    7...    DCD    823
        0x000001a4:    00000337    7...    DCD    823
        0x000001a8:    00000337    7...    DCD    823
        0x000001ac:    00000337    7...    DCD    823
        0x000001b0:    00000337    7...    DCD    823
        0x000001b4:    00000337    7...    DCD    823
        0x000001b8:    00000337    7...    DCD    823
        0x000001bc:    00000337    7...    DCD    823
        0x000001c0:    00000337    7...    DCD    823
        0x000001c4:    00000337    7...    DCD    823
        0x000001c8:    00000337    7...    DCD    823
        0x000001cc:    00000337    7...    DCD    823
        0x000001d0:    00000337    7...    DCD    823
        0x000001d4:    00000337    7...    DCD    823
        0x000001d8:    00000337    7...    DCD    823
        0x000001dc:    00000337    7...    DCD    823
        0x000001e0:    00000337    7...    DCD    823
        0x000001e4:    00000337    7...    DCD    823
        0x000001e8:    00000337    7...    DCD    823
        0x000001ec:    00000337    7...    DCD    823
        0x000001f0:    00000337    7...    DCD    823
    $t
    .ARM.Collect$$$$00000000
    .ARM.Collect$$$$00000001
    __Vectors_End
    __main
    _main_stk
        0x000001f4:    f8dfd00c    ....    LDR      sp,__lit__00000000 ; [0x204] = 0x200049f8
    .ARM.Collect$$$$00000004
    _main_scatterload
        0x000001f8:    f000f8fe    ....    BL       __scatterload ; 0x3f8
    .ARM.Collect$$$$00000008
    .ARM.Collect$$$$0000000A
    .ARM.Collect$$$$0000000B
    __main_after_scatterload
    _main_clock
    _main_cpp_init
    _main_init
        0x000001fc:    4800        .H      LDR      r0,[pc,#0] ; [0x200] = 0x1215
        0x000001fe:    4700        .G      BX       r0
    $d
        0x00000200:    00001215    ....    DCD    4629
    .ARM.Collect$$$$00002712
    __lit__00000000
    .ARM.Collect$$$$0000000D
    .ARM.Collect$$$$0000000F
    __rt_final_cpp
    __rt_final_exit
        0x00000204:    200049f8    .I.     DCD    536889848
    $t
    .emb_text
    $v0
    HardFault_Handler
        0x00000208:    2004        .       MOVS     r0,#4
        0x0000020a:    4671        qF      MOV      r1,lr
        0x0000020c:    4208        .B      TST      r0,r1
        0x0000020e:    d002        ..      BEQ      0x216 ; HardFault_Handler + 14
        0x00000210:    f3ef8009    ....    MRS      r0,PSP
        0x00000214:    e001        ..      B        0x21a ; HardFault_Handler + 18
        0x00000216:    f3ef8008    ....    MRS      r0,MSP
        0x0000021a:    4671        qF      MOV      r1,lr
        0x0000021c:    4a00        .J      LDR      r2,[pc,#0] ; [0x220] = 0x919
        0x0000021e:    4710        .G      BX       r2
    $d
        0x00000220:    00000919    ....    DCD    2329
    $t
    .emb_text
    $v0
    SVC_Handler
        0x00000224:    4b2c        ,K      LDR      r3,[pc,#176] ; [0x2d8] = 0x2000003c
        0x00000226:    6819        .h      LDR      r1,[r3,#0]
        0x00000228:    6808        .h      LDR      r0,[r1,#0]
        0x0000022a:    e8b04ff0    ...O    LDM      r0!,{r4-r11,lr}
        0x0000022e:    f3808809    ....    MSR      PSP,r0
        0x00000232:    f3bf8f6f    ..o.    ISB      
        0x00000236:    f04f0000    O...    MOV      r0,#0
        0x0000023a:    f3808811    ....    MSR      BASEPRI,r0
        0x0000023e:    4770        pG      BX       lr
    $d
        0x00000240:    00000000    ....    DCD    0
    $t
    __asm___6_port_c_39a90d8d__prvStartFirstTask
        0x00000244:    4808        .H      LDR      r0,[pc,#32] ; [0x268] = 0xe000ed08
        0x00000246:    6800        .h      LDR      r0,[r0,#0]
        0x00000248:    6800        .h      LDR      r0,[r0,#0]
        0x0000024a:    f3808808    ....    MSR      MSP,r0
        0x0000024e:    f04f0000    O...    MOV      r0,#0
        0x00000252:    f3808814    ....    MSR      CONTROL,r0
        0x00000256:    b662        b.      CPSIE    i
        0x00000258:    b661        a.      CPSIE    f
        0x0000025a:    f3bf8f4f    ..O.    DSB      
        0x0000025e:    f3bf8f6f    ..o.    ISB      
        0x00000262:    df00        ..      SVC      #0x0 ; formerly SWI
        0x00000264:    bf00        ..      NOP      
        0x00000266:    bf00        ..      NOP      
    $d
        0x00000268:    e000ed08    ....    DCD    3758157064
    $t
    __asm___6_port_c_39a90d8d__prvEnableVFP
        0x0000026c:    f8df000c    ....    LDR.W    r0,[pc,#12] ; [0x27c] = 0xe000ed88
        0x00000270:    6801        .h      LDR      r1,[r0,#0]
        0x00000272:    f4410170    A.p.    ORR      r1,r1,#0xf00000
        0x00000276:    6001        .`      STR      r1,[r0,#0]
        0x00000278:    4770        pG      BX       lr
        0x0000027a:    bf00        ..      NOP      
    $d
        0x0000027c:    e000ed88    ....    DCD    3758157192
    $t
    PendSV_Handler
        0x00000280:    f3ef8009    ....    MRS      r0,PSP
        0x00000284:    f3bf8f6f    ..o.    ISB      
        0x00000288:    4b13        .K      LDR      r3,[pc,#76] ; [0x2d8] = 0x2000003c
        0x0000028a:    681a        .h      LDR      r2,[r3,#0]
        0x0000028c:    f01e0f10    ....    TST      lr,#0x10
        0x00000290:    bf08        ..      IT       EQ
        0x00000292:    ed208a10     ...    VSTMDBEQ r0!,{s16-s31}
        0x00000296:    e9204ff0     ..O    STMDB    r0!,{r4-r11,lr}
        0x0000029a:    6010        .`      STR      r0,[r2,#0]
        0x0000029c:    b409        ..      PUSH     {r0,r3}
        0x0000029e:    f04f0050    O.P.    MOV      r0,#0x50
        0x000002a2:    f3808811    ....    MSR      BASEPRI,r0
        0x000002a6:    f3bf8f4f    ..O.    DSB      
        0x000002aa:    f3bf8f6f    ..o.    ISB      
        0x000002ae:    f001ff9b    ....    BL       vTaskSwitchContext ; 0x21e8
        0x000002b2:    f04f0000    O...    MOV      r0,#0
        0x000002b6:    f3808811    ....    MSR      BASEPRI,r0
        0x000002ba:    bc09        ..      POP      {r0,r3}
        0x000002bc:    6819        .h      LDR      r1,[r3,#0]
        0x000002be:    6808        .h      LDR      r0,[r1,#0]
        0x000002c0:    e8b04ff0    ...O    LDM      r0!,{r4-r11,lr}
        0x000002c4:    f01e0f10    ....    TST      lr,#0x10
        0x000002c8:    bf08        ..      IT       EQ
        0x000002ca:    ecb08a10    ....    VLDMEQ   r0!,{s16-s31}
        0x000002ce:    f3808809    ....    MSR      PSP,r0
        0x000002d2:    f3bf8f6f    ..o.    ISB      
        0x000002d6:    4770        pG      BX       lr
    $d
        0x000002d8:    2000003c    <..     DCD    536870972
    $t
    vPortGetIPSR
        0x000002dc:    f3ef8005    ....    MRS      r0,IPSR
        0x000002e0:    4770        pG      BX       lr
        0x000002e2:    0000        ..      MOVS     r0,r0
    .text
    $v0
    Reset_Handler
        0x000002e4:    4814        .H      LDR      r0,[pc,#80] ; [0x338] = 0x40000100
        0x000002e6:    f04f0159    O.Y.    MOV      r1,#0x59
        0x000002ea:    6001        .`      STR      r1,[r0,#0]
        0x000002ec:    f04f0116    O...    MOV      r1,#0x16
        0x000002f0:    6001        .`      STR      r1,[r0,#0]
        0x000002f2:    f04f0188    O...    MOV      r1,#0x88
        0x000002f6:    6001        .`      STR      r1,[r0,#0]
        0x000002f8:    4810        .H      LDR      r0,[pc,#64] ; [0x33c] = 0x40000200
        0x000002fa:    6841        Ah      LDR      r1,[r0,#4]
        0x000002fc:    f4414180    A..A    ORR      r1,r1,#0x4000
        0x00000300:    6041        A`      STR      r1,[r0,#4]
        0x00000302:    480f        .H      LDR      r0,[pc,#60] ; [0x340] = 0x40007000
        0x00000304:    6841        Ah      LDR      r1,[r0,#4]
        0x00000306:    f0410102    A...    ORR      r1,r1,#2
        0x0000030a:    6041        A`      STR      r1,[r0,#4]
        0x0000030c:    6841        Ah      LDR      r1,[r0,#4]
        0x0000030e:    f0410104    A...    ORR      r1,r1,#4
        0x00000312:    6041        A`      STR      r1,[r0,#4]
        0x00000314:    480b        .H      LDR      r0,[pc,#44] ; [0x344] = 0xa85
        0x00000316:    4780        .G      BLX      r0
        0x00000318:    4807        .H      LDR      r0,[pc,#28] ; [0x338] = 0x40000100
        0x0000031a:    f04f0100    O...    MOV      r1,#0
        0x0000031e:    6001        .`      STR      r1,[r0,#0]
        0x00000320:    4809        .H      LDR      r0,[pc,#36] ; [0x348] = 0x1f5
        0x00000322:    4700        .G      BX       r0
    NMI_Handler
        0x00000324:    e7fe        ..      B        NMI_Handler ; 0x324
        0x00000326:    e7fe        ..      B        0x326 ; NMI_Handler + 2
    MemManage_Handler
        0x00000328:    e7fe        ..      B        MemManage_Handler ; 0x328
    BusFault_Handler
        0x0000032a:    e7fe        ..      B        BusFault_Handler ; 0x32a
    UsageFault_Handler
        0x0000032c:    e7fe        ..      B        UsageFault_Handler ; 0x32c
        0x0000032e:    e7fe        ..      B        0x32e ; UsageFault_Handler + 2
    DebugMon_Handler
        0x00000330:    e7fe        ..      B        DebugMon_Handler ; 0x330
        0x00000332:    e7fe        ..      B        0x332 ; DebugMon_Handler + 2
        0x00000334:    e7fe        ..      B        0x334 ; DebugMon_Handler + 4
    Default_Handler
    ACMP01_IRQHandler
    BOD_IRQHandler
    BPWM0_IRQHandler
    BPWM1_IRQHandler
    BRAKE0_IRQHandler
    BRAKE1_IRQHandler
    CAN0_IRQHandler
    CAN1_IRQHandler
    CAN2_IRQHandler
    CCAP_IRQHandler
    CKFAIL_IRQHandler
    CRYPTO_IRQHandler
    DAC_IRQHandler
    EADC00_IRQHandler
    EADC01_IRQHandler
    EADC02_IRQHandler
    EADC03_IRQHandler
    EADC10_IRQHandler
    EADC11_IRQHandler
    EADC12_IRQHandler
    EADC13_IRQHandler
    ECAP0_IRQHandler
    ECAP1_IRQHandler
    EHCI_IRQHandler
    EINT0_IRQHandler
    EINT1_IRQHandler
    EINT2_IRQHandler
    EINT3_IRQHandler
    EINT4_IRQHandler
    EINT5_IRQHandler
    EINT6_IRQHandler
    EINT7_IRQHandler
    EMAC_RX_IRQHandler
    EMAC_TX_IRQHandler
    EPWM0P0_IRQHandler
    EPWM0P1_IRQHandler
    EPWM0P2_IRQHandler
    EPWM1P0_IRQHandler
    EPWM1P1_IRQHandler
    EPWM1P2_IRQHandler
    GPA_IRQHandler
    GPB_IRQHandler
    GPC_IRQHandler
    GPD_IRQHandler
    GPE_IRQHandler
    GPF_IRQHandler
    GPG_IRQHandler
    GPH_IRQHandler
    I2C0_IRQHandler
    I2C1_IRQHandler
    I2C2_IRQHandler
    I2S0_IRQHandler
    IRC_IRQHandler
    OHCI_IRQHandler
    OPA0_IRQHandler
    PDMA_IRQHandler
    PWRWU_IRQHandler
    QEI0_IRQHandler
    QEI1_IRQHandler
    QSPI0_IRQHandler
    QSPI1_IRQHandler
    RAMPE_IRQHandler
    RTC_IRQHandler
    SC0_IRQHandler
    SC1_IRQHandler
    SC2_IRQHandler
    SDH0_IRQHandler
    SDH1_IRQHandler
    SPI0_IRQHandler
    SPI1_IRQHandler
    SPI2_IRQHandler
    SPI3_IRQHandler
    SPIM_IRQHandler
    TAMPER_IRQHandler
    TMR0_IRQHandler
    TMR2_IRQHandler
    TMR3_IRQHandler
    TRNG_IRQHandler
    UART0_IRQHandler
    UART1_IRQHandler
    UART2_IRQHandler
    UART3_IRQHandler
    UART4_IRQHandler
    UART5_IRQHandler
    UART6_IRQHandler
    UART7_IRQHandler
    USBD20_IRQHandler
    USBD_IRQHandler
    USBOTG20_IRQHandler
    USBOTG_IRQHandler
    USCI0_IRQHandler
    USCI1_IRQHandler
    WDT_IRQHandler
    WWDT_IRQHandler
        0x00000336:    e7fe        ..      B        Default_Handler ; 0x336
    $d
        0x00000338:    40000100    ...@    DCD    1073742080
        0x0000033c:    40000200    ...@    DCD    1073742336
        0x00000340:    40007000    .p.@    DCD    1073770496
        0x00000344:    00000a85    ....    DCD    2693
        0x00000348:    000001f5    ....    DCD    501
    $t
    .text
    __aeabi_memcpy
    __aeabi_memcpy4
    __aeabi_memcpy8
        0x0000034c:    ea400301    @...    ORR      r3,r0,r1
        0x00000350:    079b        ..      LSLS     r3,r3,#30
        0x00000352:    d003        ..      BEQ      0x35c ; __aeabi_memcpy + 16
        0x00000354:    e009        ..      B        0x36a ; __aeabi_memcpy + 30
        0x00000356:    c908        ..      LDM      r1!,{r3}
        0x00000358:    1f12        ..      SUBS     r2,r2,#4
        0x0000035a:    c008        ..      STM      r0!,{r3}
        0x0000035c:    2a04        .*      CMP      r2,#4
        0x0000035e:    d2fa        ..      BCS      0x356 ; __aeabi_memcpy + 10
        0x00000360:    e003        ..      B        0x36a ; __aeabi_memcpy + 30
        0x00000362:    f8113b01    ...;    LDRB     r3,[r1],#1
        0x00000366:    f8003b01    ...;    STRB     r3,[r0],#1
        0x0000036a:    1e52        R.      SUBS     r2,r2,#1
        0x0000036c:    d2f9        ..      BCS      0x362 ; __aeabi_memcpy + 22
        0x0000036e:    4770        pG      BX       lr
    .text
    __aeabi_memset
    __aeabi_memset4
    __aeabi_memset8
        0x00000370:    b2d2        ..      UXTB     r2,r2
        0x00000372:    e001        ..      B        0x378 ; __aeabi_memset + 8
        0x00000374:    f8002b01    ...+    STRB     r2,[r0],#1
        0x00000378:    1e49        I.      SUBS     r1,r1,#1
        0x0000037a:    d2fb        ..      BCS      0x374 ; __aeabi_memset + 4
        0x0000037c:    4770        pG      BX       lr
    __aeabi_memclr
    __aeabi_memclr4
    __aeabi_memclr8
        0x0000037e:    2200        ."      MOVS     r2,#0
        0x00000380:    e7f6        ..      B        __aeabi_memset ; 0x370
    _memset$wrapper
        0x00000382:    b510        ..      PUSH     {r4,lr}
        0x00000384:    4613        .F      MOV      r3,r2
        0x00000386:    460a        .F      MOV      r2,r1
        0x00000388:    4604        .F      MOV      r4,r0
        0x0000038a:    4619        .F      MOV      r1,r3
        0x0000038c:    f7fffff0    ....    BL       __aeabi_memset ; 0x370
        0x00000390:    4620         F      MOV      r0,r4
        0x00000392:    bd10        ..      POP      {r4,pc}
    .text
    __aeabi_uldivmod
        0x00000394:    e92d5ff0    -.._    PUSH     {r4-r12,lr}
        0x00000398:    4605        .F      MOV      r5,r0
        0x0000039a:    2000        .       MOVS     r0,#0
        0x0000039c:    4692        .F      MOV      r10,r2
        0x0000039e:    469b        .F      MOV      r11,r3
        0x000003a0:    4688        .F      MOV      r8,r1
        0x000003a2:    4606        .F      MOV      r6,r0
        0x000003a4:    4681        .F      MOV      r9,r0
        0x000003a6:    2440        @$      MOVS     r4,#0x40
        0x000003a8:    e01b        ..      B        0x3e2 ; __aeabi_uldivmod + 78
        0x000003aa:    4628        (F      MOV      r0,r5
        0x000003ac:    4641        AF      MOV      r1,r8
        0x000003ae:    4647        GF      MOV      r7,r8
        0x000003b0:    4622        "F      MOV      r2,r4
        0x000003b2:    f000f842    ..B.    BL       __aeabi_llsr ; 0x43a
        0x000003b6:    4653        SF      MOV      r3,r10
        0x000003b8:    465a        ZF      MOV      r2,r11
        0x000003ba:    1ac0        ..      SUBS     r0,r0,r3
        0x000003bc:    4191        .A      SBCS     r1,r1,r2
        0x000003be:    d310        ..      BCC      0x3e2 ; __aeabi_uldivmod + 78
        0x000003c0:    4611        .F      MOV      r1,r2
        0x000003c2:    4618        .F      MOV      r0,r3
        0x000003c4:    4622        "F      MOV      r2,r4
        0x000003c6:    f000f829    ..).    BL       __aeabi_llsl ; 0x41c
        0x000003ca:    1a2d        -.      SUBS     r5,r5,r0
        0x000003cc:    eb670801    g...    SBC      r8,r7,r1
        0x000003d0:    464f        OF      MOV      r7,r9
        0x000003d2:    4622        "F      MOV      r2,r4
        0x000003d4:    2001        .       MOVS     r0,#1
        0x000003d6:    2100        .!      MOVS     r1,#0
        0x000003d8:    f000f820    .. .    BL       __aeabi_llsl ; 0x41c
        0x000003dc:    eb170900    ....    ADDS     r9,r7,r0
        0x000003e0:    414e        NA      ADCS     r6,r6,r1
        0x000003e2:    1e20         .      SUBS     r0,r4,#0
        0x000003e4:    f1a40401    ....    SUB      r4,r4,#1
        0x000003e8:    dcdf        ..      BGT      0x3aa ; __aeabi_uldivmod + 22
        0x000003ea:    4648        HF      MOV      r0,r9
        0x000003ec:    4631        1F      MOV      r1,r6
        0x000003ee:    462a        *F      MOV      r2,r5
        0x000003f0:    4643        CF      MOV      r3,r8
        0x000003f2:    e8bd9ff0    ....    POP      {r4-r12,pc}
        0x000003f6:    0000        ..      MOVS     r0,r0
    .text
    __scatterload
    __scatterload_rt2
        0x000003f8:    4c06        .L      LDR      r4,[pc,#24] ; [0x414] = 0x2e3c
        0x000003fa:    4d07        .M      LDR      r5,[pc,#28] ; [0x418] = 0x2e5c
        0x000003fc:    e006        ..      B        0x40c ; __scatterload + 20
        0x000003fe:    68e0        .h      LDR      r0,[r4,#0xc]
        0x00000400:    f0400301    @...    ORR      r3,r0,#1
        0x00000404:    e8940007    ....    LDM      r4,{r0-r2}
        0x00000408:    4798        .G      BLX      r3
        0x0000040a:    3410        .4      ADDS     r4,r4,#0x10
        0x0000040c:    42ac        .B      CMP      r4,r5
        0x0000040e:    d3f6        ..      BCC      0x3fe ; __scatterload + 6
        0x00000410:    f7fffef4    ....    BL       __main_after_scatterload ; 0x1fc
    $d
        0x00000414:    00002e3c    <...    DCD    11836
        0x00000418:    00002e5c    \...    DCD    11868
    $t
    .text
    __aeabi_llsl
    _ll_shift_l
        0x0000041c:    2a20         *      CMP      r2,#0x20
        0x0000041e:    db04        ..      BLT      0x42a ; __aeabi_llsl + 14
        0x00000420:    3a20         :      SUBS     r2,r2,#0x20
        0x00000422:    fa00f102    ....    LSL      r1,r0,r2
        0x00000426:    2000        .       MOVS     r0,#0
        0x00000428:    4770        pG      BX       lr
        0x0000042a:    4091        .@      LSLS     r1,r1,r2
        0x0000042c:    f1c20320    .. .    RSB      r3,r2,#0x20
        0x00000430:    fa20f303     ...    LSR      r3,r0,r3
        0x00000434:    4319        .C      ORRS     r1,r1,r3
        0x00000436:    4090        .@      LSLS     r0,r0,r2
        0x00000438:    4770        pG      BX       lr
    .text
    __aeabi_llsr
    _ll_ushift_r
        0x0000043a:    2a20         *      CMP      r2,#0x20
        0x0000043c:    db04        ..      BLT      0x448 ; __aeabi_llsr + 14
        0x0000043e:    3a20         :      SUBS     r2,r2,#0x20
        0x00000440:    fa21f002    !...    LSR      r0,r1,r2
        0x00000444:    2100        .!      MOVS     r1,#0
        0x00000446:    4770        pG      BX       lr
        0x00000448:    fa21f302    !...    LSR      r3,r1,r2
        0x0000044c:    40d0        .@      LSRS     r0,r0,r2
        0x0000044e:    f1c20220    .. .    RSB      r2,r2,#0x20
        0x00000452:    4091        .@      LSLS     r1,r1,r2
        0x00000454:    4308        .C      ORRS     r0,r0,r1
        0x00000456:    4619        .F      MOV      r1,r3
        0x00000458:    4770        pG      BX       lr
    i.CLK_DisablePLL
    CLK_DisablePLL
        0x0000045a:    f04f4080    O..@    MOV      r0,#0x40000000
        0x0000045e:    f8d01240    ..@.    LDR      r1,[r0,#0x240]
        0x00000462:    f4413180    A..1    ORR      r1,r1,#0x10000
        0x00000466:    f8c01240    ..@.    STR      r1,[r0,#0x240]
        0x0000046a:    4770        pG      BX       lr
    i.CLK_EnableModuleClock
    CLK_EnableModuleClock
        0x0000046c:    f000021f    ....    AND      r2,r0,#0x1f
        0x00000470:    2101        .!      MOVS     r1,#1
        0x00000472:    4091        .@      LSLS     r1,r1,r2
        0x00000474:    4a03        .J      LDR      r2,[pc,#12] ; [0x484] = 0x40000204
        0x00000476:    0f80        ..      LSRS     r0,r0,#30
        0x00000478:    eb020080    ....    ADD      r0,r2,r0,LSL #2
        0x0000047c:    6802        .h      LDR      r2,[r0,#0]
        0x0000047e:    430a        .C      ORRS     r2,r2,r1
        0x00000480:    6002        .`      STR      r2,[r0,#0]
        0x00000482:    4770        pG      BX       lr
    $d
        0x00000484:    40000204    ...@    DCD    1073742340
    $t
    i.CLK_EnablePLL
    CLK_EnablePLL
        0x00000488:    e92d4ff8    -..O    PUSH     {r3-r11,lr}
        0x0000048c:    460d        .F      MOV      r5,r1
        0x0000048e:    4604        .F      MOV      r4,r0
        0x00000490:    f7ffffe3    ....    BL       CLK_DisablePLL ; 0x45a
        0x00000494:    f04f4080    O..@    MOV      r0,#0x40000000
        0x00000498:    4e48        HN      LDR      r6,[pc,#288] ; [0x5bc] = 0xb71b00
        0x0000049a:    f8d01200    ....    LDR      r1,[r0,#0x200]
        0x0000049e:    b1c4        ..      CBZ      r4,0x4d2 ; CLK_EnablePLL + 74
        0x000004a0:    f0410104    A...    ORR      r1,r1,#4
        0x000004a4:    f8c01200    ....    STR      r1,[r0,#0x200]
        0x000004a8:    2010        .       MOVS     r0,#0x10
        0x000004aa:    f000fa09    ....    BL       CLK_WaitClockReady ; 0x8c0
        0x000004ae:    f44f2000    O..     MOV      r0,#0x80000
        0x000004b2:    9000        ..      STR      r0,[sp,#0]
        0x000004b4:    4842        BH      LDR      r0,[pc,#264] ; [0x5c0] = 0xfd050f80
        0x000004b6:    4943        CI      LDR      r1,[pc,#268] ; [0x5c4] = 0x1ad27480
        0x000004b8:    4428        (D      ADD      r0,r0,r5
        0x000004ba:    46b3        .F      MOV      r11,r6
        0x000004bc:    4288        .B      CMP      r0,r1
        0x000004be:    d86d        m.      BHI      0x59c ; CLK_EnablePLL + 276
        0x000004c0:    f04f0900    O...    MOV      r9,#0
        0x000004c4:    f04f32ff    O..2    MOV      r2,#0xffffffff
        0x000004c8:    464f        OF      MOV      r7,r9
        0x000004ca:    464e        NF      MOV      r6,r9
        0x000004cc:    46ae        .F      MOV      lr,r5
        0x000004ce:    2001        .       MOVS     r0,#1
        0x000004d0:    e015        ..      B        0x4fe ; CLK_EnablePLL + 118
        0x000004d2:    f0410101    A...    ORR      r1,r1,#1
        0x000004d6:    f8c01200    ....    STR      r1,[r0,#0x200]
        0x000004da:    2001        .       MOVS     r0,#1
        0x000004dc:    f000f9f0    ....    BL       CLK_WaitClockReady ; 0x8c0
        0x000004e0:    2000        .       MOVS     r0,#0
        0x000004e2:    e7e6        ..      B        0x4b2 ; CLK_EnablePLL + 42
        0x000004e4:    b3f2        ..      CBZ      r2,0x564 ; CLK_EnablePLL + 220
        0x000004e6:    2803        .(      CMP      r0,#3
        0x000004e8:    d039        9.      BEQ      0x55e ; CLK_EnablePLL + 214
        0x000004ea:    2804        .(      CMP      r0,#4
        0x000004ec:    d002        ..      BEQ      0x4f4 ; CLK_EnablePLL + 108
        0x000004ee:    2802        .(      CMP      r0,#2
        0x000004f0:    d105        ..      BNE      0x4fe ; CLK_EnablePLL + 118
        0x000004f2:    e002        ..      B        0x4fa ; CLK_EnablePLL + 114
        0x000004f4:    ea4f058e    O...    LSL      r5,lr,#2
        0x000004f8:    e001        ..      B        0x4fe ; CLK_EnablePLL + 118
        0x000004fa:    ea4f054e    O.N.    LSL      r5,lr,#1
        0x000004fe:    2302        .#      MOVS     r3,#2
        0x00000500:    b36a        j.      CBZ      r2,0x55e ; CLK_EnablePLL + 214
        0x00000502:    fbbbf1f3    ....    UDIV     r1,r11,r3
        0x00000506:    4c30        0L      LDR      r4,[pc,#192] ; [0x5c8] = 0xffc2f700
        0x00000508:    f8dfc0bc    ....    LDR      r12,[pc,#188] ; [0x5c8] = 0xffc2f700
        0x0000050c:    440c        .D      ADD      r4,r4,r1
        0x0000050e:    f1cc0c00    ....    RSB      r12,r12,#0
        0x00000512:    4564        dE      CMP      r4,r12
        0x00000514:    d820         .      BHI      0x558 ; CLK_EnablePLL + 208
        0x00000516:    2402        .$      MOVS     r4,#2
        0x00000518:    f3c10a5d    ..].    UBFX     r10,r1,#1,#30
        0x0000051c:    f8dfc0a0    ....    LDR      r12,[pc,#160] ; [0x5c0] = 0xfd050f80
        0x00000520:    fb0af104    ....    MUL      r1,r10,r4
        0x00000524:    eb01080c    ....    ADD      r8,r1,r12
        0x00000528:    f8dfc0a0    ....    LDR      r12,[pc,#160] ; [0x5cc] = 0x47868c0
        0x0000052c:    45e0        .E      CMP      r8,r12
        0x0000052e:    d80e        ..      BHI      0x54e ; CLK_EnablePLL + 198
        0x00000530:    ebb10f95    ....    CMP      r1,r5,LSR #2
        0x00000534:    d902        ..      BLS      0x53c ; CLK_EnablePLL + 180
        0x00000536:    eba10195    ....    SUB      r1,r1,r5,LSR #2
        0x0000053a:    e001        ..      B        0x540 ; CLK_EnablePLL + 184
        0x0000053c:    ebc10195    ....    RSB      r1,r1,r5,LSR #2
        0x00000540:    4291        .B      CMP      r1,r2
        0x00000542:    d204        ..      BCS      0x54e ; CLK_EnablePLL + 198
        0x00000544:    000a        ..      MOVS     r2,r1
        0x00000546:    4699        .F      MOV      r9,r3
        0x00000548:    4627        'F      MOV      r7,r4
        0x0000054a:    4606        .F      MOV      r6,r0
        0x0000054c:    d004        ..      BEQ      0x558 ; CLK_EnablePLL + 208
        0x0000054e:    f2402101    @..!    MOV      r1,#0x201
        0x00000552:    1c64        d.      ADDS     r4,r4,#1
        0x00000554:    428c        .B      CMP      r4,r1
        0x00000556:    d9e1        ..      BLS      0x51c ; CLK_EnablePLL + 148
        0x00000558:    1c5b        [.      ADDS     r3,r3,#1
        0x0000055a:    2b20         +      CMP      r3,#0x20
        0x0000055c:    d9d0        ..      BLS      0x500 ; CLK_EnablePLL + 120
        0x0000055e:    1c40        @.      ADDS     r0,r0,#1
        0x00000560:    2804        .(      CMP      r0,#4
        0x00000562:    e000        ..      B        0x566 ; CLK_EnablePLL + 222
        0x00000564:    e000        ..      B        0x568 ; CLK_EnablePLL + 224
        0x00000566:    d9bd        ..      BLS      0x4e4 ; CLK_EnablePLL + 92
        0x00000568:    4819        .H      LDR      r0,[pc,#100] ; [0x5d0] = 0xffffc000
        0x0000056a:    9900        ..      LDR      r1,[sp,#0]
        0x0000056c:    eb003086    ...0    ADD      r0,r0,r6,LSL #14
        0x00000570:    4a18        .J      LDR      r2,[pc,#96] ; [0x5d4] = 0xfffffe00
        0x00000572:    4308        .C      ORRS     r0,r0,r1
        0x00000574:    eb022149    ..I!    ADD      r1,r2,r9,LSL #9
        0x00000578:    4308        .C      ORRS     r0,r0,r1
        0x0000057a:    1eb9        ..      SUBS     r1,r7,#2
        0x0000057c:    4308        .C      ORRS     r0,r0,r1
        0x0000057e:    f04f4180    O..A    MOV      r1,#0x40000000
        0x00000582:    f8c10240    ..@.    STR      r0,[r1,#0x240]
        0x00000586:    2004        .       MOVS     r0,#4
        0x00000588:    f000f99a    ....    BL       CLK_WaitClockReady ; 0x8c0
        0x0000058c:    fb06f609    ....    MUL      r6,r6,r9
        0x00000590:    fbbbf0f6    ....    UDIV     r0,r11,r6
        0x00000594:    4378        xC      MULS     r0,r7,r0
        0x00000596:    0040        @.      LSLS     r0,r0,#1
        0x00000598:    e8bd8ff8    ....    POP      {r3-r11,pc}
        0x0000059c:    b15c        \.      CBZ      r4,0x5b6 ; CLK_EnablePLL + 302
        0x0000059e:    490e        .I      LDR      r1,[pc,#56] ; [0x5d8] = 0x8421e
        0x000005a0:    f04f4080    O..@    MOV      r0,#0x40000000
        0x000005a4:    f8c01240    ..@.    STR      r1,[r0,#0x240]
        0x000005a8:    2004        .       MOVS     r0,#4
        0x000005aa:    f000f989    ....    BL       CLK_WaitClockReady ; 0x8c0
        0x000005ae:    e8bd4ff8    ...O    POP      {r3-r11,lr}
        0x000005b2:    f000b89f    ....    B.W      CLK_GetPLLClockFreq ; 0x6f4
        0x000005b6:    f244211e    D..!    MOV      r1,#0x421e
        0x000005ba:    e7f1        ..      B        0x5a0 ; CLK_EnablePLL + 280
    $d
        0x000005bc:    00b71b00    ....    DCD    12000000
        0x000005c0:    fd050f80    ....    DCD    4244967296
        0x000005c4:    1ad27480    .t..    DCD    450000000
        0x000005c8:    ffc2f700    ....    DCD    4290967296
        0x000005cc:    047868c0    .hx.    DCD    75000000
        0x000005d0:    ffffc000    ....    DCD    4294950912
        0x000005d4:    fffffe00    ....    DCD    4294966784
        0x000005d8:    0008421e    .B..    DCD    541214
    $t
    i.CLK_EnableXtalRC
    CLK_EnableXtalRC
        0x000005dc:    f04f4180    O..A    MOV      r1,#0x40000000
        0x000005e0:    f8d12200    ..."    LDR      r2,[r1,#0x200]
        0x000005e4:    4302        .C      ORRS     r2,r2,r0
        0x000005e6:    f8c12200    ..."    STR      r2,[r1,#0x200]
        0x000005ea:    4770        pG      BX       lr
    i.CLK_GetCPUFreq
    CLK_GetCPUFreq
        0x000005ec:    b510        ..      PUSH     {r4,lr}
        0x000005ee:    f000fa25    ..%.    BL       SystemCoreClockUpdate ; 0xa3c
        0x000005f2:    4801        .H      LDR      r0,[pc,#4] ; [0x5f8] = 0x20000000
        0x000005f4:    6800        .h      LDR      r0,[r0,#0]
        0x000005f6:    bd10        ..      POP      {r4,pc}
    $d
        0x000005f8:    20000000    ...     DCD    536870912
    $t
    i.CLK_GetHXTFreq
    CLK_GetHXTFreq
        0x000005fc:    f04f4080    O..@    MOV      r0,#0x40000000
        0x00000600:    f8d00200    ....    LDR      r0,[r0,#0x200]
        0x00000604:    07c0        ..      LSLS     r0,r0,#31
        0x00000606:    d000        ..      BEQ      0x60a ; CLK_GetHXTFreq + 14
        0x00000608:    4800        .H      LDR      r0,[pc,#0] ; [0x60c] = 0xb71b00
        0x0000060a:    4770        pG      BX       lr
    $d
        0x0000060c:    00b71b00    ....    DCD    12000000
    $t
    i.CLK_GetLXTFreq
    CLK_GetLXTFreq
        0x00000610:    f04f4080    O..@    MOV      r0,#0x40000000
        0x00000614:    f8d00200    ....    LDR      r0,[r0,#0x200]
        0x00000618:    0780        ..      LSLS     r0,r0,#30
        0x0000061a:    d502        ..      BPL      0x622 ; CLK_GetLXTFreq + 18
        0x0000061c:    f44f4000    O..@    MOV      r0,#0x8000
        0x00000620:    4770        pG      BX       lr
        0x00000622:    2000        .       MOVS     r0,#0
        0x00000624:    4770        pG      BX       lr
        0x00000626:    0000        ..      MOVS     r0,r0
    i.CLK_GetPCLK0Freq
    CLK_GetPCLK0Freq
        0x00000628:    b510        ..      PUSH     {r4,lr}
        0x0000062a:    f000fa07    ....    BL       SystemCoreClockUpdate ; 0xa3c
        0x0000062e:    f04f4180    O..A    MOV      r1,#0x40000000
        0x00000632:    f8d10234    ..4.    LDR      r0,[r1,#0x234]
        0x00000636:    0742        B.      LSLS     r2,r0,#29
        0x00000638:    4813        .H      LDR      r0,[pc,#76] ; [0x688] = 0x20000000
        0x0000063a:    d017        ..      BEQ      0x66c ; CLK_GetPCLK0Freq + 68
        0x0000063c:    f8d12234    ..4"    LDR      r2,[r1,#0x234]
        0x00000640:    f0020207    ....    AND      r2,r2,#7
        0x00000644:    2a01        .*      CMP      r2,#1
        0x00000646:    d013        ..      BEQ      0x670 ; CLK_GetPCLK0Freq + 72
        0x00000648:    f8d12234    ..4"    LDR      r2,[r1,#0x234]
        0x0000064c:    f0020207    ....    AND      r2,r2,#7
        0x00000650:    2a02        .*      CMP      r2,#2
        0x00000652:    d010        ..      BEQ      0x676 ; CLK_GetPCLK0Freq + 78
        0x00000654:    f8d12234    ..4"    LDR      r2,[r1,#0x234]
        0x00000658:    f0020207    ....    AND      r2,r2,#7
        0x0000065c:    2a03        .*      CMP      r2,#3
        0x0000065e:    d00d        ..      BEQ      0x67c ; CLK_GetPCLK0Freq + 84
        0x00000660:    f8d11234    ..4.    LDR      r1,[r1,#0x234]
        0x00000664:    f0010107    ....    AND      r1,r1,#7
        0x00000668:    2904        .)      CMP      r1,#4
        0x0000066a:    d00a        ..      BEQ      0x682 ; CLK_GetPCLK0Freq + 90
        0x0000066c:    6800        .h      LDR      r0,[r0,#0]
        0x0000066e:    bd10        ..      POP      {r4,pc}
        0x00000670:    6800        .h      LDR      r0,[r0,#0]
        0x00000672:    0840        @.      LSRS     r0,r0,#1
        0x00000674:    bd10        ..      POP      {r4,pc}
        0x00000676:    6800        .h      LDR      r0,[r0,#0]
        0x00000678:    0880        ..      LSRS     r0,r0,#2
        0x0000067a:    bd10        ..      POP      {r4,pc}
        0x0000067c:    6800        .h      LDR      r0,[r0,#0]
        0x0000067e:    08c0        ..      LSRS     r0,r0,#3
        0x00000680:    bd10        ..      POP      {r4,pc}
        0x00000682:    6800        .h      LDR      r0,[r0,#0]
        0x00000684:    0900        ..      LSRS     r0,r0,#4
        0x00000686:    bd10        ..      POP      {r4,pc}
    $d
        0x00000688:    20000000    ...     DCD    536870912
    $t
    i.CLK_GetPCLK1Freq
    CLK_GetPCLK1Freq
        0x0000068c:    b510        ..      PUSH     {r4,lr}
        0x0000068e:    f000f9d5    ....    BL       SystemCoreClockUpdate ; 0xa3c
        0x00000692:    f04f4180    O..A    MOV      r1,#0x40000000
        0x00000696:    f8d10234    ..4.    LDR      r0,[r1,#0x234]
        0x0000069a:    f0100f70    ..p.    TST      r0,#0x70
        0x0000069e:    4814        .H      LDR      r0,[pc,#80] ; [0x6f0] = 0x20000000
        0x000006a0:    d017        ..      BEQ      0x6d2 ; CLK_GetPCLK1Freq + 70
        0x000006a2:    f8d12234    ..4"    LDR      r2,[r1,#0x234]
        0x000006a6:    f3c21202    ....    UBFX     r2,r2,#4,#3
        0x000006aa:    2a01        .*      CMP      r2,#1
        0x000006ac:    d013        ..      BEQ      0x6d6 ; CLK_GetPCLK1Freq + 74
        0x000006ae:    f8d12234    ..4"    LDR      r2,[r1,#0x234]
        0x000006b2:    f3c21202    ....    UBFX     r2,r2,#4,#3
        0x000006b6:    2a02        .*      CMP      r2,#2
        0x000006b8:    d010        ..      BEQ      0x6dc ; CLK_GetPCLK1Freq + 80
        0x000006ba:    f8d12234    ..4"    LDR      r2,[r1,#0x234]
        0x000006be:    f3c21202    ....    UBFX     r2,r2,#4,#3
        0x000006c2:    2a03        .*      CMP      r2,#3
        0x000006c4:    d00d        ..      BEQ      0x6e2 ; CLK_GetPCLK1Freq + 86
        0x000006c6:    f8d11234    ..4.    LDR      r1,[r1,#0x234]
        0x000006ca:    f3c11102    ....    UBFX     r1,r1,#4,#3
        0x000006ce:    2904        .)      CMP      r1,#4
        0x000006d0:    d00a        ..      BEQ      0x6e8 ; CLK_GetPCLK1Freq + 92
        0x000006d2:    6800        .h      LDR      r0,[r0,#0]
        0x000006d4:    bd10        ..      POP      {r4,pc}
        0x000006d6:    6800        .h      LDR      r0,[r0,#0]
        0x000006d8:    0840        @.      LSRS     r0,r0,#1
        0x000006da:    bd10        ..      POP      {r4,pc}
        0x000006dc:    6800        .h      LDR      r0,[r0,#0]
        0x000006de:    0880        ..      LSRS     r0,r0,#2
        0x000006e0:    bd10        ..      POP      {r4,pc}
        0x000006e2:    6800        .h      LDR      r0,[r0,#0]
        0x000006e4:    08c0        ..      LSRS     r0,r0,#3
        0x000006e6:    bd10        ..      POP      {r4,pc}
        0x000006e8:    6800        .h      LDR      r0,[r0,#0]
        0x000006ea:    0900        ..      LSRS     r0,r0,#4
        0x000006ec:    bd10        ..      POP      {r4,pc}
    $d
        0x000006ee:    0000        ..      DCW    0
        0x000006f0:    20000000    ...     DCD    536870912
    $t
    i.CLK_GetPLLClockFreq
    CLK_GetPLLClockFreq
        0x000006f4:    b508        ..      PUSH     {r3,lr}
        0x000006f6:    a110        ..      ADR      r1,{pc}+0x42 ; 0x738
        0x000006f8:    2000        .       MOVS     r0,#0
        0x000006fa:    6809        .h      LDR      r1,[r1,#0]
        0x000006fc:    9100        ..      STR      r1,[sp,#0]
        0x000006fe:    f04f4180    O..A    MOV      r1,#0x40000000
        0x00000702:    f8d11240    ..@.    LDR      r1,[r1,#0x240]
        0x00000706:    f4112fa0    .../    TST      r1,#0x50000
        0x0000070a:    d113        ..      BNE      0x734 ; CLK_GetPLLClockFreq + 64
        0x0000070c:    480b        .H      LDR      r0,[pc,#44] ; [0x73c] = 0xb71b00
        0x0000070e:    038a        ..      LSLS     r2,r1,#14
        0x00000710:    d410        ..      BMI      0x734 ; CLK_GetPLLClockFreq + 64
        0x00000712:    f3c10008    ....    UBFX     r0,r1,#0,#9
        0x00000716:    f3c13281    ...2    UBFX     r2,r1,#14,#2
        0x0000071a:    4b09        .K      LDR      r3,[pc,#36] ; [0x740] = 0x2dc6c0
        0x0000071c:    1c80        ..      ADDS     r0,r0,#2
        0x0000071e:    f81d2002    ...     LDRB     r2,[sp,r2]
        0x00000722:    f3c12144    ..D!    UBFX     r1,r1,#9,#5
        0x00000726:    4358        XC      MULS     r0,r3,r0
        0x00000728:    1c49        I.      ADDS     r1,r1,#1
        0x0000072a:    fb11f102    ....    SMULBB   r1,r1,r2
        0x0000072e:    fbb0f0f1    ....    UDIV     r0,r0,r1
        0x00000732:    00c0        ..      LSLS     r0,r0,#3
        0x00000734:    bd08        ..      POP      {r3,pc}
    $d
        0x00000736:    0000        ..      DCW    0
        0x00000738:    04020201    ....    DCD    67240449
        0x0000073c:    00b71b00    ....    DCD    12000000
        0x00000740:    002dc6c0    ..-.    DCD    3000000
    $t
    i.CLK_SetCoreClock
    CLK_SetCoreClock
        0x00000744:    b570        p.      PUSH     {r4-r6,lr}
        0x00000746:    f04f4480    O..D    MOV      r4,#0x40000000
        0x0000074a:    4606        .F      MOV      r6,r0
        0x0000074c:    f8d40250    ..P.    LDR      r0,[r4,#0x250]
        0x00000750:    f0000510    ....    AND      r5,r0,#0x10
        0x00000754:    481b        .H      LDR      r0,[pc,#108] ; [0x7c4] = 0xb71b000
        0x00000756:    4286        .B      CMP      r6,r0
        0x00000758:    d900        ..      BLS      0x75c ; CLK_SetCoreClock + 24
        0x0000075a:    4606        .F      MOV      r6,r0
        0x0000075c:    f8d40200    ....    LDR      r0,[r4,#0x200]
        0x00000760:    f0400004    @...    ORR      r0,r0,#4
        0x00000764:    f8c40200    ....    STR      r0,[r4,#0x200]
        0x00000768:    2010        .       MOVS     r0,#0x10
        0x0000076a:    f5047400    ...t    ADD      r4,r4,#0x200
        0x0000076e:    f000f8a7    ....    BL       CLK_WaitClockReady ; 0x8c0
        0x00000772:    6920         i      LDR      r0,[r4,#0x10]
        0x00000774:    f0400007    @...    ORR      r0,r0,#7
        0x00000778:    6120         a      STR      r0,[r4,#0x10]
        0x0000077a:    6a20         j      LDR      r0,[r4,#0x20]
        0x0000077c:    f020000f     ...    BIC      r0,r0,#0xf
        0x00000780:    6220         b      STR      r0,[r4,#0x20]
        0x00000782:    6820         h      LDR      r0,[r4,#0]
        0x00000784:    f5a47400    ...t    SUB      r4,r4,#0x200
        0x00000788:    07c0        ..      LSLS     r0,r0,#31
        0x0000078a:    4631        1F      MOV      r1,r6
        0x0000078c:    d004        ..      BEQ      0x798 ; CLK_SetCoreClock + 84
        0x0000078e:    2000        .       MOVS     r0,#0
        0x00000790:    f7fffe7a    ..z.    BL       CLK_EnablePLL ; 0x488
        0x00000794:    4606        .F      MOV      r6,r0
        0x00000796:    e008        ..      B        0x7aa ; CLK_SetCoreClock + 102
        0x00000798:    f44f2000    O..     MOV      r0,#0x80000
        0x0000079c:    f7fffe74    ..t.    BL       CLK_EnablePLL ; 0x488
        0x000007a0:    4606        .F      MOV      r6,r0
        0x000007a2:    f8d40250    ..P.    LDR      r0,[r4,#0x250]
        0x000007a6:    f0000510    ....    AND      r5,r0,#0x10
        0x000007aa:    2100        .!      MOVS     r1,#0
        0x000007ac:    2002        .       MOVS     r0,#2
        0x000007ae:    f000f80b    ....    BL       CLK_SetHCLK ; 0x7c8
        0x000007b2:    b92d        -.      CBNZ     r5,0x7c0 ; CLK_SetCoreClock + 124
        0x000007b4:    f8d40200    ....    LDR      r0,[r4,#0x200]
        0x000007b8:    f0200004     ...    BIC      r0,r0,#4
        0x000007bc:    f8c40200    ....    STR      r0,[r4,#0x200]
        0x000007c0:    4630        0F      MOV      r0,r6
        0x000007c2:    bd70        p.      POP      {r4-r6,pc}
    $d
        0x000007c4:    0b71b000    ..q.    DCD    192000000
    $t
    i.CLK_SetHCLK
    CLK_SetHCLK
        0x000007c8:    e92d41f0    -..A    PUSH     {r4-r8,lr}
        0x000007cc:    f04f4480    O..D    MOV      r4,#0x40000000
        0x000007d0:    4607        .F      MOV      r7,r0
        0x000007d2:    f8d40250    ..P.    LDR      r0,[r4,#0x250]
        0x000007d6:    460e        .F      MOV      r6,r1
        0x000007d8:    f0000510    ....    AND      r5,r0,#0x10
        0x000007dc:    f8d40200    ....    LDR      r0,[r4,#0x200]
        0x000007e0:    f0400004    @...    ORR      r0,r0,#4
        0x000007e4:    f8c40200    ....    STR      r0,[r4,#0x200]
        0x000007e8:    2010        .       MOVS     r0,#0x10
        0x000007ea:    f5047400    ...t    ADD      r4,r4,#0x200
        0x000007ee:    f000f867    ..g.    BL       CLK_WaitClockReady ; 0x8c0
        0x000007f2:    6920         i      LDR      r0,[r4,#0x10]
        0x000007f4:    f0400007    @...    ORR      r0,r0,#7
        0x000007f8:    6120         a      STR      r0,[r4,#0x10]
        0x000007fa:    6a20         j      LDR      r0,[r4,#0x20]
        0x000007fc:    f020000f     ...    BIC      r0,r0,#0xf
        0x00000800:    4330        0C      ORRS     r0,r0,r6
        0x00000802:    6220         b      STR      r0,[r4,#0x20]
        0x00000804:    6920         i      LDR      r0,[r4,#0x10]
        0x00000806:    f0200007     ...    BIC      r0,r0,#7
        0x0000080a:    4338        8C      ORRS     r0,r0,r7
        0x0000080c:    6120         a      STR      r0,[r4,#0x10]
        0x0000080e:    f5a47400    ...t    SUB      r4,r4,#0x200
        0x00000812:    f000f913    ....    BL       SystemCoreClockUpdate ; 0xa3c
        0x00000816:    2d00        .-      CMP      r5,#0
        0x00000818:    d105        ..      BNE      0x826 ; CLK_SetHCLK + 94
        0x0000081a:    f8d40200    ....    LDR      r0,[r4,#0x200]
        0x0000081e:    f0200004     ...    BIC      r0,r0,#4
        0x00000822:    f8c40200    ....    STR      r0,[r4,#0x200]
        0x00000826:    e8bd81f0    ....    POP      {r4-r8,pc}
        0x0000082a:    0000        ..      MOVS     r0,r0
    i.CLK_SetModuleClock
    CLK_SetModuleClock
        0x0000082c:    b5f0        ..      PUSH     {r4-r7,lr}
        0x0000082e:    f4103f7f    ...?    TST      r0,#0x3fc00
        0x00000832:    d02e        ..      BEQ      0x892 ; CLK_SetModuleClock + 102
        0x00000834:    f04f4380    O..C    MOV      r3,#0x40000000
        0x00000838:    f8d331f4    ...1    LDR      r3,[r3,#0x1f4]
        0x0000083c:    f8dfc078    ..x.    LDR      r12,[pc,#120] ; [0x8b8] = 0x4000022c
        0x00000840:    b2df        ..      UXTB     r7,r3
        0x00000842:    4b1d        .K      LDR      r3,[pc,#116] ; [0x8b8] = 0x4000022c
        0x00000844:    f3c04481    ...D    UBFX     r4,r0,#18,#2
        0x00000848:    3b0c        .;      SUBS     r3,r3,#0xc
        0x0000084a:    ea6f4590    o..E    MVN      r5,r0,LSR #18
        0x0000084e:    f10c0604    ....    ADD      r6,r12,#4
        0x00000852:    eb030384    ....    ADD      r3,r3,r4,LSL #2
        0x00000856:    2f01        ./      CMP      r7,#1
        0x00000858:    d002        ..      BEQ      0x860 ; CLK_SetModuleClock + 52
        0x0000085a:    2c02        .,      CMP      r4,#2
        0x0000085c:    d00d        ..      BEQ      0x87a ; CLK_SetModuleClock + 78
        0x0000085e:    e001        ..      B        0x864 ; CLK_SetModuleClock + 56
        0x00000860:    2c02        .,      CMP      r4,#2
        0x00000862:    d002        ..      BEQ      0x86a ; CLK_SetModuleClock + 62
        0x00000864:    07ac        ..      LSLS     r4,r5,#30
        0x00000866:    d00a        ..      BEQ      0x87e ; CLK_SetModuleClock + 82
        0x00000868:    e00a        ..      B        0x880 ; CLK_SetModuleClock + 84
        0x0000086a:    43c3        .C      MVNS     r3,r0
        0x0000086c:    06dc        ..      LSLS     r4,r3,#27
        0x0000086e:    4b13        .K      LDR      r3,[pc,#76] ; [0x8bc] = 0x40000228
        0x00000870:    d006        ..      BEQ      0x880 ; CLK_SetModuleClock + 84
        0x00000872:    f000041f    ....    AND      r4,r0,#0x1f
        0x00000876:    2c1d        .,      CMP      r4,#0x1d
        0x00000878:    d002        ..      BEQ      0x880 ; CLK_SetModuleClock + 84
        0x0000087a:    4663        cF      MOV      r3,r12
        0x0000087c:    e000        ..      B        0x880 ; CLK_SetModuleClock + 84
        0x0000087e:    4633        3F      MOV      r3,r6
        0x00000880:    681c        .h      LDR      r4,[r3,#0]
        0x00000882:    f3c02587    ...%    UBFX     r5,r0,#10,#8
        0x00000886:    f3c01644    ..D.    UBFX     r6,r0,#5,#5
        0x0000088a:    40b5        .@      LSLS     r5,r5,r6
        0x0000088c:    43ac        .C      BICS     r4,r4,r5
        0x0000088e:    4314        .C      ORRS     r4,r4,r2
        0x00000890:    601c        .`      STR      r4,[r3,#0]
        0x00000892:    0e42        B.      LSRS     r2,r0,#25
        0x00000894:    0752        R.      LSLS     r2,r2,#29
        0x00000896:    d00e        ..      BEQ      0x8b6 ; CLK_SetModuleClock + 138
        0x00000898:    4b08        .K      LDR      r3,[pc,#32] ; [0x8bc] = 0x40000228
        0x0000089a:    f3c07201    ...r    UBFX     r2,r0,#28,#2
        0x0000089e:    3b18        .;      SUBS     r3,r3,#0x18
        0x000008a0:    eb030282    ....    ADD      r2,r3,r2,LSL #2
        0x000008a4:    6813        .h      LDR      r3,[r2,#0]
        0x000008a6:    f3c06442    ..Bd    UBFX     r4,r0,#25,#3
        0x000008aa:    f3c05004    ...P    UBFX     r0,r0,#20,#5
        0x000008ae:    4084        .@      LSLS     r4,r4,r0
        0x000008b0:    43a3        .C      BICS     r3,r3,r4
        0x000008b2:    430b        .C      ORRS     r3,r3,r1
        0x000008b4:    6013        .`      STR      r3,[r2,#0]
        0x000008b6:    bdf0        ..      POP      {r4-r7,pc}
    $d
        0x000008b8:    4000022c    ,..@    DCD    1073742380
        0x000008bc:    40000228    (..@    DCD    1073742376
    $t
    i.CLK_WaitClockReady
    CLK_WaitClockReady
        0x000008c0:    b530        0.      PUSH     {r4,r5,lr}
        0x000008c2:    2401        .$      MOVS     r4,#1
        0x000008c4:    4605        .F      MOV      r5,r0
        0x000008c6:    4908        .I      LDR      r1,[pc,#32] ; [0x8e8] = 0x20f580
        0x000008c8:    07a2        ..      LSLS     r2,r4,#30
        0x000008ca:    e005        ..      B        0x8d8 ; CLK_WaitClockReady + 24
        0x000008cc:    1e08        ..      SUBS     r0,r1,#0
        0x000008ce:    f1a10101    ....    SUB      r1,r1,#1
        0x000008d2:    dc01        ..      BGT      0x8d8 ; CLK_WaitClockReady + 24
        0x000008d4:    2400        .$      MOVS     r4,#0
        0x000008d6:    e004        ..      B        0x8e2 ; CLK_WaitClockReady + 34
        0x000008d8:    f8d23250    ..P2    LDR      r3,[r2,#0x250]
        0x000008dc:    ea350003    5...    BICS     r0,r5,r3
        0x000008e0:    d1f4        ..      BNE      0x8cc ; CLK_WaitClockReady + 12
        0x000008e2:    4620         F      MOV      r0,r4
        0x000008e4:    bd30        0.      POP      {r4,r5,pc}
    $d
        0x000008e6:    0000        ..      DCW    0
        0x000008e8:    0020f580    .. .    DCD    2160000
    $t
    i.GPIO_SetMode
    GPIO_SetMode
        0x000008ec:    b5f0        ..      PUSH     {r4-r7,lr}
        0x000008ee:    2300        .#      MOVS     r3,#0
        0x000008f0:    2701        .'      MOVS     r7,#1
        0x000008f2:    2503        .%      MOVS     r5,#3
        0x000008f4:    fa07f403    ....    LSL      r4,r7,r3
        0x000008f8:    438c        .C      BICS     r4,r4,r1
        0x000008fa:    d109        ..      BNE      0x910 ; GPIO_SetMode + 36
        0x000008fc:    6806        .h      LDR      r6,[r0,#0]
        0x000008fe:    005c        \.      LSLS     r4,r3,#1
        0x00000900:    fa05fc04    ....    LSL      r12,r5,r4
        0x00000904:    ea26060c    &...    BIC      r6,r6,r12
        0x00000908:    fa02f404    ....    LSL      r4,r2,r4
        0x0000090c:    4326        &C      ORRS     r6,r6,r4
        0x0000090e:    6006        .`      STR      r6,[r0,#0]
        0x00000910:    1c5b        [.      ADDS     r3,r3,#1
        0x00000912:    2b10        .+      CMP      r3,#0x10
        0x00000914:    d3ee        ..      BCC      0x8f4 ; GPIO_SetMode + 8
        0x00000916:    bdf0        ..      POP      {r4-r7,pc}
    i.Hard_Fault_Handler
    Hard_Fault_Handler
    __tagsym$$used
        0x00000918:    4604        .F      MOV      r4,r0
        0x0000091a:    a003        ..      ADR      r0,{pc}+0xe ; 0x928
        0x0000091c:    f000fa22    ..".    BL       __0printf$8 ; 0xd64
        0x00000920:    4620         F      MOV      r0,r4
        0x00000922:    f001f99d    ....    BL       stackDump ; 0x1c60
        0x00000926:    e7fe        ..      B        0x926 ; Hard_Fault_Handler + 14
    $d
        0x00000928:    48206e49    In H    DCD    1210084937
        0x0000092c:    20647261    ard     DCD    543453793
        0x00000930:    6c756146    Faul    DCD    1819631942
        0x00000934:    61482074    t Ha    DCD    1632116852
        0x00000938:    656c646e    ndle    DCD    1701602414
        0x0000093c:    00000a72    r...    DCD    2674
    $t
    i.LED_Init
    LED_Init
        0x00000940:    b510        ..      PUSH     {r4,lr}
        0x00000942:    4c09        .L      LDR      r4,[pc,#36] ; [0x968] = 0x400041c0
        0x00000944:    2201        ."      MOVS     r2,#1
        0x00000946:    4611        .F      MOV      r1,r2
        0x00000948:    4620         F      MOV      r0,r4
        0x0000094a:    f7ffffcf    ....    BL       GPIO_SetMode ; 0x8ec
        0x0000094e:    2201        ."      MOVS     r2,#1
        0x00000950:    2102        .!      MOVS     r1,#2
        0x00000952:    4620         F      MOV      r0,r4
        0x00000954:    f7ffffca    ....    BL       GPIO_SetMode ; 0x8ec
        0x00000958:    4620         F      MOV      r0,r4
        0x0000095a:    2201        ."      MOVS     r2,#1
        0x0000095c:    e8bd4010    ...@    POP      {r4,lr}
        0x00000960:    2104        .!      MOVS     r1,#4
        0x00000962:    f7ffbfc3    ....    B.W      GPIO_SetMode ; 0x8ec
    $d
        0x00000966:    0000        ..      DCW    0
        0x00000968:    400041c0    .A.@    DCD    1073758656
    $t
    i.SYS_Init
    SYS_Init
        0x0000096c:    b570        p.      PUSH     {r4-r6,lr}
        0x0000096e:    2059        Y       MOVS     r0,#0x59
        0x00000970:    0784        ..      LSLS     r4,r0,#30
        0x00000972:    2116        .!      MOVS     r1,#0x16
        0x00000974:    2288        ."      MOVS     r2,#0x88
        0x00000976:    f8c40100    ....    STR      r0,[r4,#0x100]
        0x0000097a:    f8c41100    ....    STR      r1,[r4,#0x100]
        0x0000097e:    f8c42100    ...!    STR      r2,[r4,#0x100]
        0x00000982:    f8d43100    ...1    LDR      r3,[r4,#0x100]
        0x00000986:    2b00        .+      CMP      r3,#0
        0x00000988:    d0f5        ..      BEQ      0x976 ; SYS_Init + 10
        0x0000098a:    f04f2040    O.@     MOV      r0,#0x40004000
        0x0000098e:    f8d01140    ..@.    LDR      r1,[r0,#0x140]
        0x00000992:    f02101f0    !...    BIC      r1,r1,#0xf0
        0x00000996:    f8c01140    ..@.    STR      r1,[r0,#0x140]
        0x0000099a:    2001        .       MOVS     r0,#1
        0x0000099c:    f7fffe1e    ....    BL       CLK_EnableXtalRC ; 0x5dc
        0x000009a0:    2001        .       MOVS     r0,#1
        0x000009a2:    f7ffff8d    ....    BL       CLK_WaitClockReady ; 0x8c0
        0x000009a6:    4810        .H      LDR      r0,[pc,#64] ; [0x9e8] = 0xb71b000
        0x000009a8:    f7fffecc    ....    BL       CLK_SetCoreClock ; 0x744
        0x000009ac:    2011        .       MOVS     r0,#0x11
        0x000009ae:    f8c40234    ..4.    STR      r0,[r4,#0x234]
        0x000009b2:    4d0e        .M      LDR      r5,[pc,#56] ; [0x9ec] = 0x57803d10
        0x000009b4:    4628        (F      MOV      r0,r5
        0x000009b6:    f7fffd59    ..Y.    BL       CLK_EnableModuleClock ; 0x46c
        0x000009ba:    2200        ."      MOVS     r2,#0
        0x000009bc:    4611        .F      MOV      r1,r2
        0x000009be:    4628        (F      MOV      r0,r5
        0x000009c0:    f7ffff34    ..4.    BL       CLK_SetModuleClock ; 0x82c
        0x000009c4:    f000f89a    ....    BL       TIMER0_HW_Init ; 0xafc
        0x000009c8:    f000f8a8    ....    BL       TIMER1_HW_Init ; 0xb1c
        0x000009cc:    f000f836    ..6.    BL       SystemCoreClockUpdate ; 0xa3c
        0x000009d0:    6be0        .k      LDR      r0,[r4,#0x3c]
        0x000009d2:    f420007f     ...    BIC      r0,r0,#0xff0000
        0x000009d6:    63e0        .c      STR      r0,[r4,#0x3c]
        0x000009d8:    6be0        .k      LDR      r0,[r4,#0x3c]
        0x000009da:    f44000cc    @...    ORR      r0,r0,#0x660000
        0x000009de:    63e0        .c      STR      r0,[r4,#0x3c]
        0x000009e0:    2000        .       MOVS     r0,#0
        0x000009e2:    f8c40100    ....    STR      r0,[r4,#0x100]
        0x000009e6:    bd70        p.      POP      {r4-r6,pc}
    $d
        0x000009e8:    0b71b000    ..q.    DCD    192000000
        0x000009ec:    57803d10    .=.W    DCD    1468022032
    $t
    i.SendChar
    SendChar
        0x000009f0:    4906        .I      LDR      r1,[pc,#24] ; [0xa0c] = 0x40070000
        0x000009f2:    698a        .i      LDR      r2,[r1,#0x18]
        0x000009f4:    0212        ..      LSLS     r2,r2,#8
        0x000009f6:    d4fc        ..      BMI      0x9f2 ; SendChar + 2
        0x000009f8:    280a        .(      CMP      r0,#0xa
        0x000009fa:    d104        ..      BNE      0xa06 ; SendChar + 22
        0x000009fc:    220d        ."      MOVS     r2,#0xd
        0x000009fe:    600a        .`      STR      r2,[r1,#0]
        0x00000a00:    698a        .i      LDR      r2,[r1,#0x18]
        0x00000a02:    0212        ..      LSLS     r2,r2,#8
        0x00000a04:    d4fc        ..      BMI      0xa00 ; SendChar + 16
        0x00000a06:    6008        .`      STR      r0,[r1,#0]
        0x00000a08:    4770        pG      BX       lr
    $d
        0x00000a0a:    0000        ..      DCW    0
        0x00000a0c:    40070000    ...@    DCD    1074200576
    $t
    i.SysTick_Handler
    SysTick_Handler
        0x00000a10:    b510        ..      PUSH     {r4,lr}
        0x00000a12:    2050        P       MOVS     r0,#0x50
        0x00000a14:    f3808811    ....    MSR      BASEPRI,r0
        0x00000a18:    f3bf8f4f    ..O.    DSB      
        0x00000a1c:    f3bf8f6f    ..o.    ISB      
        0x00000a20:    f002f840    ..@.    BL       xTaskIncrementTick ; 0x2aa4
        0x00000a24:    b118        ..      CBZ      r0,0xa2e ; SysTick_Handler + 30
        0x00000a26:    4904        .I      LDR      r1,[pc,#16] ; [0xa38] = 0xe000ed04
        0x00000a28:    f04f5080    O..P    MOV      r0,#0x10000000
        0x00000a2c:    6008        .`      STR      r0,[r1,#0]
        0x00000a2e:    2000        .       MOVS     r0,#0
        0x00000a30:    f3808811    ....    MSR      BASEPRI,r0
        0x00000a34:    bd10        ..      POP      {r4,pc}
    $d
        0x00000a36:    0000        ..      DCW    0
        0x00000a38:    e000ed04    ....    DCD    3758157060
    $t
    i.SystemCoreClockUpdate
    SystemCoreClockUpdate
        0x00000a3c:    b510        ..      PUSH     {r4,lr}
        0x00000a3e:    f7fffe59    ..Y.    BL       CLK_GetPLLClockFreq ; 0x6f4
        0x00000a42:    4a0e        .J      LDR      r2,[pc,#56] ; [0xa7c] = 0x20000000
        0x00000a44:    f04f4380    O..C    MOV      r3,#0x40000000
        0x00000a48:    6090        .`      STR      r0,[r2,#8]
        0x00000a4a:    f8d31210    ....    LDR      r1,[r3,#0x210]
        0x00000a4e:    f0010107    ....    AND      r1,r1,#7
        0x00000a52:    2902        .)      CMP      r1,#2
        0x00000a54:    d003        ..      BEQ      0xa5e ; SystemCoreClockUpdate + 34
        0x00000a56:    f102000c    ....    ADD      r0,r2,#0xc
        0x00000a5a:    f8500021    P.!.    LDR      r0,[r0,r1,LSL #2]
        0x00000a5e:    f8d31220    .. .    LDR      r1,[r3,#0x220]
        0x00000a62:    f001010f    ....    AND      r1,r1,#0xf
        0x00000a66:    1c49        I.      ADDS     r1,r1,#1
        0x00000a68:    fbb0f0f1    ....    UDIV     r0,r0,r1
        0x00000a6c:    4904        .I      LDR      r1,[pc,#16] ; [0xa80] = 0x7a120
        0x00000a6e:    6010        .`      STR      r0,[r2,#0]
        0x00000a70:    4408        .D      ADD      r0,r0,r1
        0x00000a72:    0049        I.      LSLS     r1,r1,#1
        0x00000a74:    fbb0f0f1    ....    UDIV     r0,r0,r1
        0x00000a78:    6050        P`      STR      r0,[r2,#4]
        0x00000a7a:    bd10        ..      POP      {r4,pc}
    $d
        0x00000a7c:    20000000    ...     DCD    536870912
        0x00000a80:    0007a120     ...    DCD    500000
    $t
    i.SystemInit
    SystemInit
        0x00000a84:    481a        .H      LDR      r0,[pc,#104] ; [0xaf0] = 0xe000ed88
        0x00000a86:    6801        .h      LDR      r1,[r0,#0]
        0x00000a88:    f4410170    A.p.    ORR      r1,r1,#0xf00000
        0x00000a8c:    6001        .`      STR      r1,[r0,#0]
        0x00000a8e:    4819        .H      LDR      r0,[pc,#100] ; [0xaf4] = 0x4000c000
        0x00000a90:    6cc1        .l      LDR      r1,[r0,#0x4c]
        0x00000a92:    f021010f    !...    BIC      r1,r1,#0xf
        0x00000a96:    f0410108    A...    ORR      r1,r1,#8
        0x00000a9a:    64c1        .d      STR      r1,[r0,#0x4c]
        0x00000a9c:    f04f4080    O..@    MOV      r0,#0x40000000
        0x00000aa0:    f8d01298    ....    LDR      r1,[r0,#0x298]
        0x00000aa4:    f4412180    A..!    ORR      r1,r1,#0x40000
        0x00000aa8:    f8c01298    ....    STR      r1,[r0,#0x298]
        0x00000aac:    f8d01208    ....    LDR      r1,[r0,#0x208]
        0x00000ab0:    f0410102    A...    ORR      r1,r1,#2
        0x00000ab4:    f8c01208    ....    STR      r1,[r0,#0x208]
        0x00000ab8:    490f        .I      LDR      r1,[pc,#60] ; [0xaf8] = 0x40041000
        0x00000aba:    f8d12104    ...!    LDR      r2,[r1,#0x104]
        0x00000abe:    f00232f7    ...2    AND      r2,r2,#0xf7f7f7f7
        0x00000ac2:    f8c12104    ...!    STR      r2,[r1,#0x104]
        0x00000ac6:    f8d12108    ...!    LDR      r2,[r1,#0x108]
        0x00000aca:    f00232f7    ...2    AND      r2,r2,#0xf7f7f7f7
        0x00000ace:    f8c12108    ...!    STR      r2,[r1,#0x108]
        0x00000ad2:    f8d01208    ....    LDR      r1,[r0,#0x208]
        0x00000ad6:    f0210102    !...    BIC      r1,r1,#2
        0x00000ada:    f8c01208    ....    STR      r1,[r0,#0x208]
        0x00000ade:    f04f2040    O.@     MOV      r0,#0x40004000
        0x00000ae2:    f8d01140    ..@.    LDR      r1,[r0,#0x140]
        0x00000ae6:    f02101f0    !...    BIC      r1,r1,#0xf0
        0x00000aea:    f8c01140    ..@.    STR      r1,[r0,#0x140]
        0x00000aee:    4770        pG      BX       lr
    $d
        0x00000af0:    e000ed88    ....    DCD    3758157192
        0x00000af4:    4000c000    ...@    DCD    1073790976
        0x00000af8:    40041000    ...@    DCD    1074008064
    $t
    i.TIMER0_HW_Init
    TIMER0_HW_Init
        0x00000afc:    b510        ..      PUSH     {r4,lr}
        0x00000afe:    4c06        .L      LDR      r4,[pc,#24] ; [0xb18] = 0x5e800002
        0x00000b00:    4620         F      MOV      r0,r4
        0x00000b02:    f7fffcb3    ....    BL       CLK_EnableModuleClock ; 0x46c
        0x00000b06:    4620         F      MOV      r0,r4
        0x00000b08:    e8bd4010    ...@    POP      {r4,lr}
        0x00000b0c:    2200        ."      MOVS     r2,#0
        0x00000b0e:    f44f7100    O..q    MOV      r1,#0x200
        0x00000b12:    f7ffbe8b    ....    B.W      CLK_SetModuleClock ; 0x82c
    $d
        0x00000b16:    0000        ..      DCW    0
        0x00000b18:    5e800002    ...^    DCD    1585446914
    $t
    i.TIMER1_HW_Init
    TIMER1_HW_Init
        0x00000b1c:    b510        ..      PUSH     {r4,lr}
        0x00000b1e:    4c06        .L      LDR      r4,[pc,#24] ; [0xb38] = 0x5ec00003
        0x00000b20:    4620         F      MOV      r0,r4
        0x00000b22:    f7fffca3    ....    BL       CLK_EnableModuleClock ; 0x46c
        0x00000b26:    4620         F      MOV      r0,r4
        0x00000b28:    e8bd4010    ...@    POP      {r4,lr}
        0x00000b2c:    2200        ."      MOVS     r2,#0
        0x00000b2e:    f44f41e0    O..A    MOV      r1,#0x7000
        0x00000b32:    f7ffbe7b    ..{.    B.W      CLK_SetModuleClock ; 0x82c
    $d
        0x00000b36:    0000        ..      DCW    0
        0x00000b38:    5ec00003    ...^    DCD    1589641219
    $t
    i.TIMER1_Init
    TIMER1_Init
        0x00000b3c:    b510        ..      PUSH     {r4,lr}
        0x00000b3e:    4c0a        .L      LDR      r4,[pc,#40] ; [0xb68] = 0x40050100
        0x00000b40:    f44f727a    O.zr    MOV      r2,#0x3e8
        0x00000b44:    f04f6100    O..a    MOV      r1,#0x8000000
        0x00000b48:    4620         F      MOV      r0,r4
        0x00000b4a:    f000f84d    ..M.    BL       TIMER_Open ; 0xbe8
        0x00000b4e:    6820         h      LDR      r0,[r4,#0]
        0x00000b50:    f0405000    @..P    ORR      r0,r0,#0x20000000
        0x00000b54:    6020         `      STR      r0,[r4,#0]
        0x00000b56:    4905        .I      LDR      r1,[pc,#20] ; [0xb6c] = 0xe000e004
        0x00000b58:    2002        .       MOVS     r0,#2
        0x00000b5a:    f8c10100    ....    STR      r0,[r1,#0x100]
        0x00000b5e:    6820         h      LDR      r0,[r4,#0]
        0x00000b60:    f0404080    @..@    ORR      r0,r0,#0x40000000
        0x00000b64:    6020         `      STR      r0,[r4,#0]
        0x00000b66:    bd10        ..      POP      {r4,pc}
    $d
        0x00000b68:    40050100    ...@    DCD    1074069760
        0x00000b6c:    e000e004    ....    DCD    3758153732
    $t
    i.TIMER_GetModuleClock
    TIMER_GetModuleClock
        0x00000b70:    b510        ..      PUSH     {r4,lr}
        0x00000b72:    b088        ..      SUB      sp,sp,#0x20
        0x00000b74:    4604        .F      MOV      r4,r0
        0x00000b76:    2220         "      MOVS     r2,#0x20
        0x00000b78:    4917        .I      LDR      r1,[pc,#92] ; [0xbd8] = 0x2e1c
        0x00000b7a:    4668        hF      MOV      r0,sp
        0x00000b7c:    f7fffbe6    ....    BL       __aeabi_memcpy ; 0x34c
        0x00000b80:    4a16        .J      LDR      r2,[pc,#88] ; [0xbdc] = 0x40050000
        0x00000b82:    4b17        .K      LDR      r3,[pc,#92] ; [0xbe0] = 0x40050100
        0x00000b84:    0390        ..      LSLS     r0,r2,#14
        0x00000b86:    4294        .B      CMP      r4,r2
        0x00000b88:    d104        ..      BNE      0xb94 ; TIMER_GetModuleClock + 36
        0x00000b8a:    f8d00214    ....    LDR      r0,[r0,#0x214]
        0x00000b8e:    f3c02102    ...!    UBFX     r1,r0,#8,#3
        0x00000b92:    e010        ..      B        0xbb6 ; TIMER_GetModuleClock + 70
        0x00000b94:    429c        .B      CMP      r4,r3
        0x00000b96:    d104        ..      BNE      0xba2 ; TIMER_GetModuleClock + 50
        0x00000b98:    f8d00214    ....    LDR      r0,[r0,#0x214]
        0x00000b9c:    f3c03102    ...1    UBFX     r1,r0,#12,#3
        0x00000ba0:    e009        ..      B        0xbb6 ; TIMER_GetModuleClock + 70
        0x00000ba2:    4910        .I      LDR      r1,[pc,#64] ; [0xbe4] = 0x40051000
        0x00000ba4:    f8d00214    ....    LDR      r0,[r0,#0x214]
        0x00000ba8:    428c        .B      CMP      r4,r1
        0x00000baa:    d102        ..      BNE      0xbb2 ; TIMER_GetModuleClock + 66
        0x00000bac:    f3c04102    ...A    UBFX     r1,r0,#16,#3
        0x00000bb0:    e001        ..      B        0xbb6 ; TIMER_GetModuleClock + 70
        0x00000bb2:    f3c05102    ...Q    UBFX     r1,r0,#20,#3
        0x00000bb6:    2902        .)      CMP      r1,#2
        0x00000bb8:    d003        ..      BEQ      0xbc2 ; TIMER_GetModuleClock + 82
        0x00000bba:    f85d0021    ].!.    LDR      r0,[sp,r1,LSL #2]
        0x00000bbe:    b008        ..      ADD      sp,sp,#0x20
        0x00000bc0:    bd10        ..      POP      {r4,pc}
        0x00000bc2:    4294        .B      CMP      r4,r2
        0x00000bc4:    d001        ..      BEQ      0xbca ; TIMER_GetModuleClock + 90
        0x00000bc6:    429c        .B      CMP      r4,r3
        0x00000bc8:    d102        ..      BNE      0xbd0 ; TIMER_GetModuleClock + 96
        0x00000bca:    f7fffd2d    ..-.    BL       CLK_GetPCLK0Freq ; 0x628
        0x00000bce:    e7f6        ..      B        0xbbe ; TIMER_GetModuleClock + 78
        0x00000bd0:    f7fffd5c    ..\.    BL       CLK_GetPCLK1Freq ; 0x68c
        0x00000bd4:    e7f3        ..      B        0xbbe ; TIMER_GetModuleClock + 78
    $d
        0x00000bd6:    0000        ..      DCW    0
        0x00000bd8:    00002e1c    ....    DCD    11804
        0x00000bdc:    40050000    ...@    DCD    1074069504
        0x00000be0:    40050100    ...@    DCD    1074069760
        0x00000be4:    40051000    ...@    DCD    1074073600
    $t
    i.TIMER_Open
    TIMER_Open
        0x00000be8:    b570        p.      PUSH     {r4-r6,lr}
        0x00000bea:    4616        .F      MOV      r6,r2
        0x00000bec:    460d        .F      MOV      r5,r1
        0x00000bee:    4604        .F      MOV      r4,r0
        0x00000bf0:    f7ffffbe    ....    BL       TIMER_GetModuleClock ; 0xb70
        0x00000bf4:    2300        .#      MOVS     r3,#0
        0x00000bf6:    ebb60f50    ..P.    CMP      r6,r0,LSR #1
        0x00000bfa:    d901        ..      BLS      0xc00 ; TIMER_Open + 24
        0x00000bfc:    2202        ."      MOVS     r2,#2
        0x00000bfe:    e006        ..      B        0xc0e ; TIMER_Open + 38
        0x00000c00:    fbb0f2f6    ....    UDIV     r2,r0,r6
        0x00000c04:    0e13        ..      LSRS     r3,r2,#24
        0x00000c06:    d002        ..      BEQ      0xc0e ; TIMER_Open + 38
        0x00000c08:    1c59        Y.      ADDS     r1,r3,#1
        0x00000c0a:    fbb2f2f1    ....    UDIV     r2,r2,r1
        0x00000c0e:    431d        .C      ORRS     r5,r5,r3
        0x00000c10:    6025        %`      STR      r5,[r4,#0]
        0x00000c12:    6062        b`      STR      r2,[r4,#4]
        0x00000c14:    1c5b        [.      ADDS     r3,r3,#1
        0x00000c16:    435a        ZC      MULS     r2,r3,r2
        0x00000c18:    fbb0f0f2    ....    UDIV     r0,r0,r2
        0x00000c1c:    bd70        p.      POP      {r4-r6,pc}
        0x00000c1e:    0000        ..      MOVS     r0,r0
    i.TMR1_IRQHandler
    TMR1_IRQHandler
        0x00000c20:    4808        .H      LDR      r0,[pc,#32] ; [0xc44] = 0x40050100
        0x00000c22:    6881        .h      LDR      r1,[r0,#8]
        0x00000c24:    f3c10100    ....    UBFX     r1,r1,#0,#1
        0x00000c28:    2900        .)      CMP      r1,#0
        0x00000c2a:    d00a        ..      BEQ      0xc42 ; TMR1_IRQHandler + 34
        0x00000c2c:    2101        .!      MOVS     r1,#1
        0x00000c2e:    6081        .`      STR      r1,[r0,#8]
        0x00000c30:    4905        .I      LDR      r1,[pc,#20] ; [0xc48] = 0x20000030
        0x00000c32:    8848        H.      LDRH     r0,[r1,#2]
        0x00000c34:    1c42        B.      ADDS     r2,r0,#1
        0x00000c36:    804a        J.      STRH     r2,[r1,#2]
        0x00000c38:    f5b07f7a    ..z.    CMP      r0,#0x3e8
        0x00000c3c:    d901        ..      BLS      0xc42 ; TMR1_IRQHandler + 34
        0x00000c3e:    2000        .       MOVS     r0,#0
        0x00000c40:    8048        H.      STRH     r0,[r1,#2]
        0x00000c42:    4770        pG      BX       lr
    $d
        0x00000c44:    40050100    ...@    DCD    1074069760
        0x00000c48:    20000030    0..     DCD    536870960
    $t
    i.UART_Open
    UART_Open
        0x00000c4c:    e92d41ff    -..A    PUSH     {r0-r8,lr}
        0x00000c50:    4604        .F      MOV      r4,r0
        0x00000c52:    483c        <H      LDR      r0,[pc,#240] ; [0xd44] = 0x2dec
        0x00000c54:    460f        .F      MOV      r7,r1
        0x00000c56:    2500        .%      MOVS     r5,#0
        0x00000c58:    c80f        ..      LDM      r0,{r0-r3}
        0x00000c5a:    e88d000f    ....    STM      sp,{r0-r3}
        0x00000c5e:    493a        :I      LDR      r1,[pc,#232] ; [0xd48] = 0x40070000
        0x00000c60:    462e        .F      MOV      r6,r5
        0x00000c62:    f04f4080    O..@    MOV      r0,#0x40000000
        0x00000c66:    428c        .B      CMP      r4,r1
        0x00000c68:    d106        ..      BNE      0xc78 ; UART_Open + 44
        0x00000c6a:    f8d01214    ....    LDR      r1,[r0,#0x214]
        0x00000c6e:    f8d00220    .. .    LDR      r0,[r0,#0x220]
        0x00000c72:    f3c16501    ...e    UBFX     r5,r1,#24,#2
        0x00000c76:    e02a        *.      B        0xcce ; UART_Open + 130
        0x00000c78:    4934        4I      LDR      r1,[pc,#208] ; [0xd4c] = 0x40071000
        0x00000c7a:    428c        .B      CMP      r4,r1
        0x00000c7c:    d106        ..      BNE      0xc8c ; UART_Open + 64
        0x00000c7e:    f8d01214    ....    LDR      r1,[r0,#0x214]
        0x00000c82:    f8d00220    .. .    LDR      r0,[r0,#0x220]
        0x00000c86:    f3c16581    ...e    UBFX     r5,r1,#26,#2
        0x00000c8a:    e02b        +.      B        0xce4 ; UART_Open + 152
        0x00000c8c:    4930        0I      LDR      r1,[pc,#192] ; [0xd50] = 0x40072000
        0x00000c8e:    428c        .B      CMP      r4,r1
        0x00000c90:    d108        ..      BNE      0xca4 ; UART_Open + 88
        0x00000c92:    f8d0121c    ....    LDR      r1,[r0,#0x21c]
        0x00000c96:    f8d00230    ..0.    LDR      r0,[r0,#0x230]
        0x00000c9a:    f3c16501    ...e    UBFX     r5,r1,#24,#2
        0x00000c9e:    f000060f    ....    AND      r6,r0,#0xf
        0x00000ca2:    e021        !.      B        0xce8 ; UART_Open + 156
        0x00000ca4:    492b        +I      LDR      r1,[pc,#172] ; [0xd54] = 0x40073000
        0x00000ca6:    428c        .B      CMP      r4,r1
        0x00000ca8:    d108        ..      BNE      0xcbc ; UART_Open + 112
        0x00000caa:    f8d0121c    ....    LDR      r1,[r0,#0x21c]
        0x00000cae:    f8d00230    ..0.    LDR      r0,[r0,#0x230]
        0x00000cb2:    f3c16581    ...e    UBFX     r5,r1,#26,#2
        0x00000cb6:    f3c01603    ....    UBFX     r6,r0,#4,#4
        0x00000cba:    e015        ..      B        0xce8 ; UART_Open + 156
        0x00000cbc:    4926        &I      LDR      r1,[pc,#152] ; [0xd58] = 0x40074000
        0x00000cbe:    428c        .B      CMP      r4,r1
        0x00000cc0:    d108        ..      BNE      0xcd4 ; UART_Open + 136
        0x00000cc2:    f8d0121c    ....    LDR      r1,[r0,#0x21c]
        0x00000cc6:    f8d00230    ..0.    LDR      r0,[r0,#0x230]
        0x00000cca:    f3c17501    ...u    UBFX     r5,r1,#28,#2
        0x00000cce:    f3c02603    ...&    UBFX     r6,r0,#8,#4
        0x00000cd2:    e009        ..      B        0xce8 ; UART_Open + 156
        0x00000cd4:    4921        !I      LDR      r1,[pc,#132] ; [0xd5c] = 0x40075000
        0x00000cd6:    428c        .B      CMP      r4,r1
        0x00000cd8:    d106        ..      BNE      0xce8 ; UART_Open + 156
        0x00000cda:    f8d0121c    ....    LDR      r1,[r0,#0x21c]
        0x00000cde:    f8d00230    ..0.    LDR      r0,[r0,#0x230]
        0x00000ce2:    0f8d        ..      LSRS     r5,r1,#30
        0x00000ce4:    f3c03603    ...6    UBFX     r6,r0,#12,#4
        0x00000ce8:    2000        .       MOVS     r0,#0
        0x00000cea:    6320         c      STR      r0,[r4,#0x30]
        0x00000cec:    2003        .       MOVS     r0,#3
        0x00000cee:    60e0        .`      STR      r0,[r4,#0xc]
        0x00000cf0:    68a0        .h      LDR      r0,[r4,#8]
        0x00000cf2:    491b        .I      LDR      r1,[pc,#108] ; [0xd60] = 0xfff0ff0f
        0x00000cf4:    4008        .@      ANDS     r0,r0,r1
        0x00000cf6:    60a0        .`      STR      r0,[r4,#8]
        0x00000cf8:    46e8        .F      MOV      r8,sp
        0x00000cfa:    2d01        .-      CMP      r5,#1
        0x00000cfc:    d102        ..      BNE      0xd04 ; UART_Open + 184
        0x00000cfe:    f7fffcf9    ....    BL       CLK_GetPLLClockFreq ; 0x6f4
        0x00000d02:    9001        ..      STR      r0,[sp,#4]
        0x00000d04:    2f00        ./      CMP      r7,#0
        0x00000d06:    d01a        ..      BEQ      0xd3e ; UART_Open + 242
        0x00000d08:    f8581025    X.%.    LDR      r1,[r8,r5,LSL #2]
        0x00000d0c:    1c76        v.      ADDS     r6,r6,#1
        0x00000d0e:    fbb1f0f6    ....    UDIV     r0,r1,r6
        0x00000d12:    eb000057    ..W.    ADD      r0,r0,r7,LSR #1
        0x00000d16:    fbb0f0f7    ....    UDIV     r0,r0,r7
        0x00000d1a:    1e80        ..      SUBS     r0,r0,#2
        0x00000d1c:    f5b03f80    ...?    CMP      r0,#0x10000
        0x00000d20:    d30a        ..      BCC      0xd38 ; UART_Open + 236
        0x00000d22:    fbb1f0f6    ....    UDIV     r0,r1,r6
        0x00000d26:    eb0000c7    ....    ADD      r0,r0,r7,LSL #3
        0x00000d2a:    fbb0f0f7    ....    UDIV     r0,r0,r7
        0x00000d2e:    f06f0101    o...    MVN      r1,#1
        0x00000d32:    eb011010    ....    ADD      r0,r1,r0,LSR #4
        0x00000d36:    e001        ..      B        0xd3c ; UART_Open + 240
        0x00000d38:    f0405040    @.@P    ORR      r0,r0,#0x30000000
        0x00000d3c:    6260        `b      STR      r0,[r4,#0x24]
        0x00000d3e:    e8bd81ff    ....    POP      {r0-r8,pc}
    $d
        0x00000d42:    0000        ..      DCW    0
        0x00000d44:    00002dec    .-..    DCD    11756
        0x00000d48:    40070000    ...@    DCD    1074200576
        0x00000d4c:    40071000    ...@    DCD    1074204672
        0x00000d50:    40072000    . .@    DCD    1074208768
        0x00000d54:    40073000    .0.@    DCD    1074212864
        0x00000d58:    40074000    .@.@    DCD    1074216960
        0x00000d5c:    40075000    .P.@    DCD    1074221056
        0x00000d60:    fff0ff0f    ....    DCD    4293984015
    $t
    i.__0printf$8
    __0printf$8
    __1printf$8
    __2printf
        0x00000d64:    b40f        ..      PUSH     {r0-r3}
        0x00000d66:    4b05        .K      LDR      r3,[pc,#20] ; [0xd7c] = 0x1207
        0x00000d68:    b510        ..      PUSH     {r4,lr}
        0x00000d6a:    a903        ..      ADD      r1,sp,#0xc
        0x00000d6c:    4a04        .J      LDR      r2,[pc,#16] ; [0xd80] = 0x2000002c
        0x00000d6e:    9802        ..      LDR      r0,[sp,#8]
        0x00000d70:    f000f818    ....    BL       _printf_core ; 0xda4
        0x00000d74:    bc10        ..      POP      {r4}
        0x00000d76:    f85dfb14    ]...    LDR      pc,[sp],#0x14
    $d
        0x00000d7a:    0000        ..      DCW    0
        0x00000d7c:    00001207    ....    DCD    4615
        0x00000d80:    2000002c    ,..     DCD    536870956
    $t
    i.__scatterload_copy
    __scatterload_copy
        0x00000d84:    e002        ..      B        0xd8c ; __scatterload_copy + 8
        0x00000d86:    c808        ..      LDM      r0!,{r3}
        0x00000d88:    1f12        ..      SUBS     r2,r2,#4
        0x00000d8a:    c108        ..      STM      r1!,{r3}
        0x00000d8c:    2a00        .*      CMP      r2,#0
        0x00000d8e:    d1fa        ..      BNE      0xd86 ; __scatterload_copy + 2
        0x00000d90:    4770        pG      BX       lr
    i.__scatterload_null
    __scatterload_null
        0x00000d92:    4770        pG      BX       lr
    i.__scatterload_zeroinit
    __scatterload_zeroinit
        0x00000d94:    2000        .       MOVS     r0,#0
        0x00000d96:    e001        ..      B        0xd9c ; __scatterload_zeroinit + 8
        0x00000d98:    c101        ..      STM      r1!,{r0}
        0x00000d9a:    1f12        ..      SUBS     r2,r2,#4
        0x00000d9c:    2a00        .*      CMP      r2,#0
        0x00000d9e:    d1fb        ..      BNE      0xd98 ; __scatterload_zeroinit + 4
        0x00000da0:    4770        pG      BX       lr
        0x00000da2:    0000        ..      MOVS     r0,r0
    i._printf_core
    _printf_core
        0x00000da4:    e92d4fff    -..O    PUSH     {r0-r11,lr}
        0x00000da8:    b08d        ..      SUB      sp,sp,#0x34
        0x00000daa:    460f        .F      MOV      r7,r1
        0x00000dac:    4605        .F      MOV      r5,r0
        0x00000dae:    2600        .&      MOVS     r6,#0
        0x00000db0:    e006        ..      B        0xdc0 ; _printf_core + 28
        0x00000db2:    2825        %(      CMP      r0,#0x25
        0x00000db4:    d00b        ..      BEQ      0xdce ; _printf_core + 42
        0x00000db6:    e9dd120f    ....    LDRD     r1,r2,[sp,#0x3c]
        0x00000dba:    4790        .G      BLX      r2
        0x00000dbc:    1c6d        m.      ADDS     r5,r5,#1
        0x00000dbe:    1c76        v.      ADDS     r6,r6,#1
        0x00000dc0:    7828        (x      LDRB     r0,[r5,#0]
        0x00000dc2:    2800        .(      CMP      r0,#0
        0x00000dc4:    d1f5        ..      BNE      0xdb2 ; _printf_core + 14
        0x00000dc6:    b011        ..      ADD      sp,sp,#0x44
        0x00000dc8:    4630        0F      MOV      r0,r6
        0x00000dca:    e8bd8ff0    ....    POP      {r4-r11,pc}
        0x00000dce:    2400        .$      MOVS     r4,#0
        0x00000dd0:    46a2        .F      MOV      r10,r4
        0x00000dd2:    46a1        .F      MOV      r9,r4
        0x00000dd4:    2201        ."      MOVS     r2,#1
        0x00000dd6:    49ec        .I      LDR      r1,[pc,#944] ; [0x1188] = 0x12809
        0x00000dd8:    e000        ..      B        0xddc ; _printf_core + 56
        0x00000dda:    4304        .C      ORRS     r4,r4,r0
        0x00000ddc:    f8153f01    ...?    LDRB     r3,[r5,#1]!
        0x00000de0:    3b20         ;      SUBS     r3,r3,#0x20
        0x00000de2:    fa02f003    ....    LSL      r0,r2,r3
        0x00000de6:    4208        .B      TST      r0,r1
        0x00000de8:    d1f7        ..      BNE      0xdda ; _printf_core + 54
        0x00000dea:    7828        (x      LDRB     r0,[r5,#0]
        0x00000dec:    282a        *(      CMP      r0,#0x2a
        0x00000dee:    d010        ..      BEQ      0xe12 ; _printf_core + 110
        0x00000df0:    f06f022f    o./.    MVN      r2,#0x2f
        0x00000df4:    7828        (x      LDRB     r0,[r5,#0]
        0x00000df6:    f1a00130    ..0.    SUB      r1,r0,#0x30
        0x00000dfa:    2909        .)      CMP      r1,#9
        0x00000dfc:    d814        ..      BHI      0xe28 ; _printf_core + 132
        0x00000dfe:    eb0a018a    ....    ADD      r1,r10,r10,LSL #2
        0x00000e02:    eb020141    ..A.    ADD      r1,r2,r1,LSL #1
        0x00000e06:    f0440402    D...    ORR      r4,r4,#2
        0x00000e0a:    eb000a01    ....    ADD      r10,r0,r1
        0x00000e0e:    1c6d        m.      ADDS     r5,r5,#1
        0x00000e10:    e7f0        ..      B        0xdf4 ; _printf_core + 80
        0x00000e12:    cf01        ..      LDM      r7!,{r0}
        0x00000e14:    ea5f0a00    _...    MOVS     r10,r0
        0x00000e18:    d503        ..      BPL      0xe22 ; _printf_core + 126
        0x00000e1a:    f4445400    D..T    ORR      r4,r4,#0x2000
        0x00000e1e:    f1ca0a00    ....    RSB      r10,r10,#0
        0x00000e22:    f0440402    D...    ORR      r4,r4,#2
        0x00000e26:    1c6d        m.      ADDS     r5,r5,#1
        0x00000e28:    7828        (x      LDRB     r0,[r5,#0]
        0x00000e2a:    282e        .(      CMP      r0,#0x2e
        0x00000e2c:    d117        ..      BNE      0xe5e ; _printf_core + 186
        0x00000e2e:    f8150f01    ....    LDRB     r0,[r5,#1]!
        0x00000e32:    f0440404    D...    ORR      r4,r4,#4
        0x00000e36:    282a        *(      CMP      r0,#0x2a
        0x00000e38:    d00e        ..      BEQ      0xe58 ; _printf_core + 180
        0x00000e3a:    f06f022f    o./.    MVN      r2,#0x2f
        0x00000e3e:    7828        (x      LDRB     r0,[r5,#0]
        0x00000e40:    f1a00130    ..0.    SUB      r1,r0,#0x30
        0x00000e44:    2909        .)      CMP      r1,#9
        0x00000e46:    d80a        ..      BHI      0xe5e ; _printf_core + 186
        0x00000e48:    eb090189    ....    ADD      r1,r9,r9,LSL #2
        0x00000e4c:    eb020141    ..A.    ADD      r1,r2,r1,LSL #1
        0x00000e50:    eb000901    ....    ADD      r9,r0,r1
        0x00000e54:    1c6d        m.      ADDS     r5,r5,#1
        0x00000e56:    e7f2        ..      B        0xe3e ; _printf_core + 154
        0x00000e58:    f8579b04    W...    LDR      r9,[r7],#4
        0x00000e5c:    1c6d        m.      ADDS     r5,r5,#1
        0x00000e5e:    7828        (x      LDRB     r0,[r5,#0]
        0x00000e60:    286c        l(      CMP      r0,#0x6c
        0x00000e62:    d00f        ..      BEQ      0xe84 ; _printf_core + 224
        0x00000e64:    dc06        ..      BGT      0xe74 ; _printf_core + 208
        0x00000e66:    284c        L(      CMP      r0,#0x4c
        0x00000e68:    d017        ..      BEQ      0xe9a ; _printf_core + 246
        0x00000e6a:    2868        h(      CMP      r0,#0x68
        0x00000e6c:    d00d        ..      BEQ      0xe8a ; _printf_core + 230
        0x00000e6e:    286a        j(      CMP      r0,#0x6a
        0x00000e70:    d114        ..      BNE      0xe9c ; _printf_core + 248
        0x00000e72:    e004        ..      B        0xe7e ; _printf_core + 218
        0x00000e74:    2874        t(      CMP      r0,#0x74
        0x00000e76:    d010        ..      BEQ      0xe9a ; _printf_core + 246
        0x00000e78:    287a        z(      CMP      r0,#0x7a
        0x00000e7a:    d10f        ..      BNE      0xe9c ; _printf_core + 248
        0x00000e7c:    e00d        ..      B        0xe9a ; _printf_core + 246
        0x00000e7e:    f4441400    D...    ORR      r4,r4,#0x200000
        0x00000e82:    e00a        ..      B        0xe9a ; _printf_core + 246
        0x00000e84:    f4441480    D...    ORR      r4,r4,#0x100000
        0x00000e88:    e001        ..      B        0xe8e ; _printf_core + 234
        0x00000e8a:    f4441440    D.@.    ORR      r4,r4,#0x300000
        0x00000e8e:    7869        ix      LDRB     r1,[r5,#1]
        0x00000e90:    4281        .B      CMP      r1,r0
        0x00000e92:    d102        ..      BNE      0xe9a ; _printf_core + 246
        0x00000e94:    f5041480    ....    ADD      r4,r4,#0x100000
        0x00000e98:    1c6d        m.      ADDS     r5,r5,#1
        0x00000e9a:    1c6d        m.      ADDS     r5,r5,#1
        0x00000e9c:    782a        *x      LDRB     r2,[r5,#0]
        0x00000e9e:    2a6e        n*      CMP      r2,#0x6e
        0x00000ea0:    d01f        ..      BEQ      0xee2 ; _printf_core + 318
        0x00000ea2:    dc0c        ..      BGT      0xebe ; _printf_core + 282
        0x00000ea4:    2a63        c*      CMP      r2,#0x63
        0x00000ea6:    d031        1.      BEQ      0xf0c ; _printf_core + 360
        0x00000ea8:    dc04        ..      BGT      0xeb4 ; _printf_core + 272
        0x00000eaa:    2a00        .*      CMP      r2,#0
        0x00000eac:    d08b        ..      BEQ      0xdc6 ; _printf_core + 34
        0x00000eae:    2a58        X*      CMP      r2,#0x58
        0x00000eb0:    d111        ..      BNE      0xed6 ; _printf_core + 306
        0x00000eb2:    e0a3        ..      B        0xffc ; _printf_core + 600
        0x00000eb4:    2a64        d*      CMP      r2,#0x64
        0x00000eb6:    d068        h.      BEQ      0xf8a ; _printf_core + 486
        0x00000eb8:    2a69        i*      CMP      r2,#0x69
        0x00000eba:    d10c        ..      BNE      0xed6 ; _printf_core + 306
        0x00000ebc:    e065        e.      B        0xf8a ; _printf_core + 486
        0x00000ebe:    2a73        s*      CMP      r2,#0x73
        0x00000ec0:    d02e        ..      BEQ      0xf20 ; _printf_core + 380
        0x00000ec2:    dc04        ..      BGT      0xece ; _printf_core + 298
        0x00000ec4:    2a6f        o*      CMP      r2,#0x6f
        0x00000ec6:    d073        s.      BEQ      0xfb0 ; _printf_core + 524
        0x00000ec8:    2a70        p*      CMP      r2,#0x70
        0x00000eca:    d104        ..      BNE      0xed6 ; _printf_core + 306
        0x00000ecc:    e09b        ..      B        0x1006 ; _printf_core + 610
        0x00000ece:    2a75        u*      CMP      r2,#0x75
        0x00000ed0:    d06f        o.      BEQ      0xfb2 ; _printf_core + 526
        0x00000ed2:    2a78        x*      CMP      r2,#0x78
        0x00000ed4:    d06e        n.      BEQ      0xfb4 ; _printf_core + 528
        0x00000ed6:    4610        .F      MOV      r0,r2
        0x00000ed8:    e9dd120f    ....    LDRD     r1,r2,[sp,#0x3c]
        0x00000edc:    4790        .G      BLX      r2
        0x00000ede:    1c76        v.      ADDS     r6,r6,#1
        0x00000ee0:    e150        P.      B        0x1184 ; _printf_core + 992
        0x00000ee2:    f3c45002    ...P    UBFX     r0,r4,#20,#3
        0x00000ee6:    2802        .(      CMP      r0,#2
        0x00000ee8:    d006        ..      BEQ      0xef8 ; _printf_core + 340
        0x00000eea:    2803        .(      CMP      r0,#3
        0x00000eec:    d009        ..      BEQ      0xf02 ; _printf_core + 350
        0x00000eee:    2804        .(      CMP      r0,#4
        0x00000ef0:    cf01        ..      LDM      r7!,{r0}
        0x00000ef2:    d009        ..      BEQ      0xf08 ; _printf_core + 356
        0x00000ef4:    6006        .`      STR      r6,[r0,#0]
        0x00000ef6:    e145        E.      B        0x1184 ; _printf_core + 992
        0x00000ef8:    cf01        ..      LDM      r7!,{r0}
        0x00000efa:    17f1        ..      ASRS     r1,r6,#31
        0x00000efc:    e9c06100    ...a    STRD     r6,r1,[r0,#0]
        0x00000f00:    e140        @.      B        0x1184 ; _printf_core + 992
        0x00000f02:    cf01        ..      LDM      r7!,{r0}
        0x00000f04:    8006        ..      STRH     r6,[r0,#0]
        0x00000f06:    e13d        =.      B        0x1184 ; _printf_core + 992
        0x00000f08:    7006        .p      STRB     r6,[r0,#0]
        0x00000f0a:    e13b        ;.      B        0x1184 ; _printf_core + 992
        0x00000f0c:    f8170b04    ....    LDRB     r0,[r7],#4
        0x00000f10:    f88d0000    ....    STRB     r0,[sp,#0]
        0x00000f14:    2000        .       MOVS     r0,#0
        0x00000f16:    f88d0001    ....    STRB     r0,[sp,#1]
        0x00000f1a:    46eb        .F      MOV      r11,sp
        0x00000f1c:    2001        .       MOVS     r0,#1
        0x00000f1e:    e003        ..      B        0xf28 ; _printf_core + 388
        0x00000f20:    f857bb04    W...    LDR      r11,[r7],#4
        0x00000f24:    f04f30ff    O..0    MOV      r0,#0xffffffff
        0x00000f28:    0761        a.      LSLS     r1,r4,#29
        0x00000f2a:    f04f0100    O...    MOV      r1,#0
        0x00000f2e:    d402        ..      BMI      0xf36 ; _printf_core + 402
        0x00000f30:    e00d        ..      B        0xf4e ; _printf_core + 426
        0x00000f32:    f1080101    ....    ADD      r1,r8,#1
        0x00000f36:    4688        .F      MOV      r8,r1
        0x00000f38:    4549        IE      CMP      r1,r9
        0x00000f3a:    da0f        ..      BGE      0xf5c ; _printf_core + 440
        0x00000f3c:    4580        .E      CMP      r8,r0
        0x00000f3e:    dbf8        ..      BLT      0xf32 ; _printf_core + 398
        0x00000f40:    f81b1008    ....    LDRB     r1,[r11,r8]
        0x00000f44:    2900        .)      CMP      r1,#0
        0x00000f46:    d1f4        ..      BNE      0xf32 ; _printf_core + 398
        0x00000f48:    e008        ..      B        0xf5c ; _printf_core + 440
        0x00000f4a:    f1080101    ....    ADD      r1,r8,#1
        0x00000f4e:    4688        .F      MOV      r8,r1
        0x00000f50:    4281        .B      CMP      r1,r0
        0x00000f52:    dbfa        ..      BLT      0xf4a ; _printf_core + 422
        0x00000f54:    f81b1008    ....    LDRB     r1,[r11,r8]
        0x00000f58:    2900        .)      CMP      r1,#0
        0x00000f5a:    d1f6        ..      BNE      0xf4a ; _printf_core + 422
        0x00000f5c:    e9dd230f    ...#    LDRD     r2,r3,[sp,#0x3c]
        0x00000f60:    ebaa0008    ....    SUB      r0,r10,r8
        0x00000f64:    4681        .F      MOV      r9,r0
        0x00000f66:    4621        !F      MOV      r1,r4
        0x00000f68:    f000f936    ..6.    BL       _printf_pre_padding ; 0x11d8
        0x00000f6c:    4430        0D      ADD      r0,r0,r6
        0x00000f6e:    eb000608    ....    ADD      r6,r0,r8
        0x00000f72:    e004        ..      B        0xf7e ; _printf_core + 474
        0x00000f74:    e9dd120f    ....    LDRD     r1,r2,[sp,#0x3c]
        0x00000f78:    f81b0b01    ....    LDRB     r0,[r11],#1
        0x00000f7c:    4790        .G      BLX      r2
        0x00000f7e:    f1b80801    ....    SUBS     r8,r8,#1
        0x00000f82:    d2f7        ..      BCS      0xf74 ; _printf_core + 464
        0x00000f84:    4621        !F      MOV      r1,r4
        0x00000f86:    4648        HF      MOV      r0,r9
        0x00000f88:    e0f7        ..      B        0x117a ; _printf_core + 982
        0x00000f8a:    210a        .!      MOVS     r1,#0xa
        0x00000f8c:    f3c45302    ...S    UBFX     r3,r4,#20,#3
        0x00000f90:    f04f0b00    O...    MOV      r11,#0
        0x00000f94:    9108        ..      STR      r1,[sp,#0x20]
        0x00000f96:    2b02        .+      CMP      r3,#2
        0x00000f98:    d004        ..      BEQ      0xfa4 ; _printf_core + 512
        0x00000f9a:    cf01        ..      LDM      r7!,{r0}
        0x00000f9c:    17c1        ..      ASRS     r1,r0,#31
        0x00000f9e:    2b03        .+      CMP      r3,#3
        0x00000fa0:    d009        ..      BEQ      0xfb6 ; _printf_core + 530
        0x00000fa2:    e00a        ..      B        0xfba ; _printf_core + 534
        0x00000fa4:    1dff        ..      ADDS     r7,r7,#7
        0x00000fa6:    f0270707    '...    BIC      r7,r7,#7
        0x00000faa:    e8f70102    ....    LDRD     r0,r1,[r7],#8
        0x00000fae:    e008        ..      B        0xfc2 ; _printf_core + 542
        0x00000fb0:    e032        2.      B        0x1018 ; _printf_core + 628
        0x00000fb2:    e01f        ..      B        0xff4 ; _printf_core + 592
        0x00000fb4:    e020         .      B        0xff8 ; _printf_core + 596
        0x00000fb6:    b200        ..      SXTH     r0,r0
        0x00000fb8:    17c1        ..      ASRS     r1,r0,#31
        0x00000fba:    2b04        .+      CMP      r3,#4
        0x00000fbc:    d101        ..      BNE      0xfc2 ; _printf_core + 542
        0x00000fbe:    b240        @.      SXTB     r0,r0
        0x00000fc0:    17c1        ..      ASRS     r1,r0,#31
        0x00000fc2:    1e03        ..      SUBS     r3,r0,#0
        0x00000fc4:    f1710300    q...    SBCS     r3,r1,#0
        0x00000fc8:    da07        ..      BGE      0xfda ; _printf_core + 566
        0x00000fca:    f04f0c00    O...    MOV      r12,#0
        0x00000fce:    ebd0000c    ....    RSBS     r0,r0,r12
        0x00000fd2:    eb6c0101    l...    SBC      r1,r12,r1
        0x00000fd6:    232d        -#      MOVS     r3,#0x2d
        0x00000fd8:    e002        ..      B        0xfe0 ; _printf_core + 572
        0x00000fda:    0523        #.      LSLS     r3,r4,#20
        0x00000fdc:    d504        ..      BPL      0xfe8 ; _printf_core + 580
        0x00000fde:    232b        +#      MOVS     r3,#0x2b
        0x00000fe0:    f88d3024    ..$0    STRB     r3,[sp,#0x24]
        0x00000fe4:    2301        .#      MOVS     r3,#1
        0x00000fe6:    e003        ..      B        0xff0 ; _printf_core + 588
        0x00000fe8:    07e3        ..      LSLS     r3,r4,#31
        0x00000fea:    d001        ..      BEQ      0xff0 ; _printf_core + 588
        0x00000fec:    2320         #      MOVS     r3,#0x20
        0x00000fee:    e7f7        ..      B        0xfe0 ; _printf_core + 572
        0x00000ff0:    4698        .F      MOV      r8,r3
        0x00000ff2:    e058        X.      B        0x10a6 ; _printf_core + 770
        0x00000ff4:    210a        .!      MOVS     r1,#0xa
        0x00000ff6:    e010        ..      B        0x101a ; _printf_core + 630
        0x00000ff8:    2110        .!      MOVS     r1,#0x10
        0x00000ffa:    e00e        ..      B        0x101a ; _printf_core + 630
        0x00000ffc:    2010        .       MOVS     r0,#0x10
        0x00000ffe:    f04f0b00    O...    MOV      r11,#0
        0x00001002:    9008        ..      STR      r0,[sp,#0x20]
        0x00001004:    e00c        ..      B        0x1020 ; _printf_core + 636
        0x00001006:    2110        .!      MOVS     r1,#0x10
        0x00001008:    f04f0b00    O...    MOV      r11,#0
        0x0000100c:    f0440404    D...    ORR      r4,r4,#4
        0x00001010:    f04f0908    O...    MOV      r9,#8
        0x00001014:    9108        ..      STR      r1,[sp,#0x20]
        0x00001016:    e003        ..      B        0x1020 ; _printf_core + 636
        0x00001018:    2108        .!      MOVS     r1,#8
        0x0000101a:    f04f0b00    O...    MOV      r11,#0
        0x0000101e:    9108        ..      STR      r1,[sp,#0x20]
        0x00001020:    f3c45302    ...S    UBFX     r3,r4,#20,#3
        0x00001024:    2b02        .+      CMP      r3,#2
        0x00001026:    d004        ..      BEQ      0x1032 ; _printf_core + 654
        0x00001028:    cf01        ..      LDM      r7!,{r0}
        0x0000102a:    2100        .!      MOVS     r1,#0
        0x0000102c:    2b03        .+      CMP      r3,#3
        0x0000102e:    d006        ..      BEQ      0x103e ; _printf_core + 666
        0x00001030:    e006        ..      B        0x1040 ; _printf_core + 668
        0x00001032:    1dff        ..      ADDS     r7,r7,#7
        0x00001034:    f0270707    '...    BIC      r7,r7,#7
        0x00001038:    e8f70102    ....    LDRD     r0,r1,[r7],#8
        0x0000103c:    e003        ..      B        0x1046 ; _printf_core + 674
        0x0000103e:    b280        ..      UXTH     r0,r0
        0x00001040:    2b04        .+      CMP      r3,#4
        0x00001042:    d100        ..      BNE      0x1046 ; _printf_core + 674
        0x00001044:    b2c0        ..      UXTB     r0,r0
        0x00001046:    f04f0800    O...    MOV      r8,#0
        0x0000104a:    0723        #.      LSLS     r3,r4,#28
        0x0000104c:    d52b        +.      BPL      0x10a6 ; _printf_core + 770
        0x0000104e:    2a70        p*      CMP      r2,#0x70
        0x00001050:    d007        ..      BEQ      0x1062 ; _printf_core + 702
        0x00001052:    f8ddc020    .. .    LDR      r12,[sp,#0x20]
        0x00001056:    f08c0c10    ....    EOR      r12,r12,#0x10
        0x0000105a:    ea5c0c0b    \...    ORRS     r12,r12,r11
        0x0000105e:    d005        ..      BEQ      0x106c ; _printf_core + 712
        0x00001060:    e00e        ..      B        0x1080 ; _printf_core + 732
        0x00001062:    2340        @#      MOVS     r3,#0x40
        0x00001064:    f88d3024    ..$0    STRB     r3,[sp,#0x24]
        0x00001068:    2301        .#      MOVS     r3,#1
        0x0000106a:    e008        ..      B        0x107e ; _printf_core + 730
        0x0000106c:    ea500301    P...    ORRS     r3,r0,r1
        0x00001070:    d006        ..      BEQ      0x1080 ; _printf_core + 732
        0x00001072:    2330        0#      MOVS     r3,#0x30
        0x00001074:    f88d3024    ..$0    STRB     r3,[sp,#0x24]
        0x00001078:    f88d2025    ..%     STRB     r2,[sp,#0x25]
        0x0000107c:    2302        .#      MOVS     r3,#2
        0x0000107e:    4698        .F      MOV      r8,r3
        0x00001080:    f8ddc020    .. .    LDR      r12,[sp,#0x20]
        0x00001084:    f08c0c08    ....    EOR      r12,r12,#8
        0x00001088:    ea5c0c0b    \...    ORRS     r12,r12,r11
        0x0000108c:    d10b        ..      BNE      0x10a6 ; _printf_core + 770
        0x0000108e:    ea500301    P...    ORRS     r3,r0,r1
        0x00001092:    d101        ..      BNE      0x1098 ; _printf_core + 756
        0x00001094:    0763        c.      LSLS     r3,r4,#29
        0x00001096:    d506        ..      BPL      0x10a6 ; _printf_core + 770
        0x00001098:    2330        0#      MOVS     r3,#0x30
        0x0000109a:    f88d3024    ..$0    STRB     r3,[sp,#0x24]
        0x0000109e:    f04f0801    O...    MOV      r8,#1
        0x000010a2:    f1a90901    ....    SUB      r9,r9,#1
        0x000010a6:    2a58        X*      CMP      r2,#0x58
        0x000010a8:    d004        ..      BEQ      0x10b4 ; _printf_core + 784
        0x000010aa:    a238        8.      ADR      r2,{pc}+0xe2 ; 0x118c
        0x000010ac:    920b        ..      STR      r2,[sp,#0x2c]
        0x000010ae:    aa08        ..      ADD      r2,sp,#0x20
        0x000010b0:    920a        ..      STR      r2,[sp,#0x28]
        0x000010b2:    e00b        ..      B        0x10cc ; _printf_core + 808
        0x000010b4:    a23a        :.      ADR      r2,{pc}+0xec ; 0x11a0
        0x000010b6:    e7f9        ..      B        0x10ac ; _printf_core + 776
        0x000010b8:    465b        [F      MOV      r3,r11
        0x000010ba:    9a08        ..      LDR      r2,[sp,#0x20]
        0x000010bc:    f7fff96a    ..j.    BL       __aeabi_uldivmod ; 0x394
        0x000010c0:    9b0b        ..      LDR      r3,[sp,#0x2c]
        0x000010c2:    5c9b        .\      LDRB     r3,[r3,r2]
        0x000010c4:    9a0a        ..      LDR      r2,[sp,#0x28]
        0x000010c6:    1e52        R.      SUBS     r2,r2,#1
        0x000010c8:    920a        ..      STR      r2,[sp,#0x28]
        0x000010ca:    7013        .p      STRB     r3,[r2,#0]
        0x000010cc:    ea500201    P...    ORRS     r2,r0,r1
        0x000010d0:    d1f2        ..      BNE      0x10b8 ; _printf_core + 788
        0x000010d2:    980a        ..      LDR      r0,[sp,#0x28]
        0x000010d4:    ebad0000    ....    SUB      r0,sp,r0
        0x000010d8:    f1000b20    .. .    ADD      r11,r0,#0x20
        0x000010dc:    0760        `.      LSLS     r0,r4,#29
        0x000010de:    d502        ..      BPL      0x10e6 ; _printf_core + 834
        0x000010e0:    f4243480    $..4    BIC      r4,r4,#0x10000
        0x000010e4:    e001        ..      B        0x10ea ; _printf_core + 838
        0x000010e6:    f04f0901    O...    MOV      r9,#1
        0x000010ea:    45d9        .E      CMP      r9,r11
        0x000010ec:    dd02        ..      BLE      0x10f4 ; _printf_core + 848
        0x000010ee:    eba9000b    ....    SUB      r0,r9,r11
        0x000010f2:    e000        ..      B        0x10f6 ; _printf_core + 850
        0x000010f4:    2000        .       MOVS     r0,#0
        0x000010f6:    eb00010b    ....    ADD      r1,r0,r11
        0x000010fa:    4441        AD      ADD      r1,r1,r8
        0x000010fc:    9008        ..      STR      r0,[sp,#0x20]
        0x000010fe:    ebaa0a01    ....    SUB      r10,r10,r1
        0x00001102:    03e0        ..      LSLS     r0,r4,#15
        0x00001104:    d406        ..      BMI      0x1114 ; _printf_core + 880
        0x00001106:    e9dd230f    ...#    LDRD     r2,r3,[sp,#0x3c]
        0x0000110a:    4621        !F      MOV      r1,r4
        0x0000110c:    4650        PF      MOV      r0,r10
        0x0000110e:    f000f863    ..c.    BL       _printf_pre_padding ; 0x11d8
        0x00001112:    4406        .D      ADD      r6,r6,r0
        0x00001114:    f04f0900    O...    MOV      r9,#0
        0x00001118:    e008        ..      B        0x112c ; _printf_core + 904
        0x0000111a:    a909        ..      ADD      r1,sp,#0x24
        0x0000111c:    f8110009    ....    LDRB     r0,[r1,r9]
        0x00001120:    e9dd120f    ....    LDRD     r1,r2,[sp,#0x3c]
        0x00001124:    4790        .G      BLX      r2
        0x00001126:    f1090901    ....    ADD      r9,r9,#1
        0x0000112a:    1c76        v.      ADDS     r6,r6,#1
        0x0000112c:    45c1        .E      CMP      r9,r8
        0x0000112e:    dbf4        ..      BLT      0x111a ; _printf_core + 886
        0x00001130:    03e0        ..      LSLS     r0,r4,#15
        0x00001132:    d50c        ..      BPL      0x114e ; _printf_core + 938
        0x00001134:    e9dd230f    ...#    LDRD     r2,r3,[sp,#0x3c]
        0x00001138:    4621        !F      MOV      r1,r4
        0x0000113a:    4650        PF      MOV      r0,r10
        0x0000113c:    f000f84c    ..L.    BL       _printf_pre_padding ; 0x11d8
        0x00001140:    4406        .D      ADD      r6,r6,r0
        0x00001142:    e004        ..      B        0x114e ; _printf_core + 938
        0x00001144:    e9dd120f    ....    LDRD     r1,r2,[sp,#0x3c]
        0x00001148:    2030        0       MOVS     r0,#0x30
        0x0000114a:    4790        .G      BLX      r2
        0x0000114c:    1c76        v.      ADDS     r6,r6,#1
        0x0000114e:    9908        ..      LDR      r1,[sp,#0x20]
        0x00001150:    1e48        H.      SUBS     r0,r1,#1
        0x00001152:    9008        ..      STR      r0,[sp,#0x20]
        0x00001154:    2900        .)      CMP      r1,#0
        0x00001156:    dcf5        ..      BGT      0x1144 ; _printf_core + 928
        0x00001158:    e008        ..      B        0x116c ; _printf_core + 968
        0x0000115a:    980a        ..      LDR      r0,[sp,#0x28]
        0x0000115c:    990a        ..      LDR      r1,[sp,#0x28]
        0x0000115e:    7800        .x      LDRB     r0,[r0,#0]
        0x00001160:    1c49        I.      ADDS     r1,r1,#1
        0x00001162:    910a        ..      STR      r1,[sp,#0x28]
        0x00001164:    e9dd120f    ....    LDRD     r1,r2,[sp,#0x3c]
        0x00001168:    4790        .G      BLX      r2
        0x0000116a:    1c76        v.      ADDS     r6,r6,#1
        0x0000116c:    f1bb0100    ....    SUBS     r1,r11,#0
        0x00001170:    f1ab0b01    ....    SUB      r11,r11,#1
        0x00001174:    dcf1        ..      BGT      0x115a ; _printf_core + 950
        0x00001176:    4621        !F      MOV      r1,r4
        0x00001178:    4650        PF      MOV      r0,r10
        0x0000117a:    e9dd230f    ...#    LDRD     r2,r3,[sp,#0x3c]
        0x0000117e:    f000f819    ....    BL       _printf_post_padding ; 0x11b4
        0x00001182:    4406        .D      ADD      r6,r6,r0
        0x00001184:    1c6d        m.      ADDS     r5,r5,#1
        0x00001186:    e61b        ..      B        0xdc0 ; _printf_core + 28
    $d
        0x00001188:    00012809    .(..    DCD    75785
        0x0000118c:    33323130    0123    DCD    858927408
        0x00001190:    37363534    4567    DCD    926299444
        0x00001194:    62613938    89ab    DCD    1650538808
        0x00001198:    66656463    cdef    DCD    1717920867
        0x0000119c:    00000000    ....    DCD    0
        0x000011a0:    33323130    0123    DCD    858927408
        0x000011a4:    37363534    4567    DCD    926299444
        0x000011a8:    42413938    89AB    DCD    1111570744
        0x000011ac:    46454443    CDEF    DCD    1178944579
        0x000011b0:    00000000    ....    DCD    0
    $t
    i._printf_post_padding
    _printf_post_padding
        0x000011b4:    e92d41f0    -..A    PUSH     {r4-r8,lr}
        0x000011b8:    4604        .F      MOV      r4,r0
        0x000011ba:    2500        .%      MOVS     r5,#0
        0x000011bc:    461e        .F      MOV      r6,r3
        0x000011be:    4617        .F      MOV      r7,r2
        0x000011c0:    0488        ..      LSLS     r0,r1,#18
        0x000011c2:    d404        ..      BMI      0x11ce ; _printf_post_padding + 26
        0x000011c4:    e005        ..      B        0x11d2 ; _printf_post_padding + 30
        0x000011c6:    4639        9F      MOV      r1,r7
        0x000011c8:    2020                MOVS     r0,#0x20
        0x000011ca:    47b0        .G      BLX      r6
        0x000011cc:    1c6d        m.      ADDS     r5,r5,#1
        0x000011ce:    1e64        d.      SUBS     r4,r4,#1
        0x000011d0:    d5f9        ..      BPL      0x11c6 ; _printf_post_padding + 18
        0x000011d2:    4628        (F      MOV      r0,r5
        0x000011d4:    e8bd81f0    ....    POP      {r4-r8,pc}
    i._printf_pre_padding
    _printf_pre_padding
        0x000011d8:    e92d41f0    -..A    PUSH     {r4-r8,lr}
        0x000011dc:    4604        .F      MOV      r4,r0
        0x000011de:    2500        .%      MOVS     r5,#0
        0x000011e0:    461e        .F      MOV      r6,r3
        0x000011e2:    4690        .F      MOV      r8,r2
        0x000011e4:    03c8        ..      LSLS     r0,r1,#15
        0x000011e6:    d501        ..      BPL      0x11ec ; _printf_pre_padding + 20
        0x000011e8:    2730        0'      MOVS     r7,#0x30
        0x000011ea:    e000        ..      B        0x11ee ; _printf_pre_padding + 22
        0x000011ec:    2720         '      MOVS     r7,#0x20
        0x000011ee:    0488        ..      LSLS     r0,r1,#18
        0x000011f0:    d504        ..      BPL      0x11fc ; _printf_pre_padding + 36
        0x000011f2:    e005        ..      B        0x1200 ; _printf_pre_padding + 40
        0x000011f4:    4641        AF      MOV      r1,r8
        0x000011f6:    4638        8F      MOV      r0,r7
        0x000011f8:    47b0        .G      BLX      r6
        0x000011fa:    1c6d        m.      ADDS     r5,r5,#1
        0x000011fc:    1e64        d.      SUBS     r4,r4,#1
        0x000011fe:    d5f9        ..      BPL      0x11f4 ; _printf_pre_padding + 28
        0x00001200:    4628        (F      MOV      r0,r5
        0x00001202:    e8bd81f0    ....    POP      {r4-r8,pc}
    i.fputc
    fputc
        0x00001206:    b510        ..      PUSH     {r4,lr}
        0x00001208:    4604        .F      MOV      r4,r0
        0x0000120a:    f7fffbf1    ....    BL       SendChar ; 0x9f0
        0x0000120e:    4620         F      MOV      r0,r4
        0x00001210:    bd10        ..      POP      {r4,pc}
        0x00001212:    0000        ..      MOVS     r0,r0
    i.main
    main
        0x00001214:    b51c        ..      PUSH     {r2-r4,lr}
        0x00001216:    f7fffba9    ....    BL       SYS_Init ; 0x96c
        0x0000121a:    f44f31e1    O..1    MOV      r1,#0x1c200
        0x0000121e:    483a        :H      LDR      r0,[pc,#232] ; [0x1308] = 0x40070000
        0x00001220:    f7fffd14    ....    BL       UART_Open ; 0xc4c
        0x00001224:    f000ffd8    ....    BL       vTaskSuspendAll ; 0x21d8
        0x00001228:    f7fff9e0    ....    BL       CLK_GetCPUFreq ; 0x5ec
        0x0000122c:    4601        .F      MOV      r1,r0
        0x0000122e:    a037        7.      ADR      r0,{pc}+0xde ; 0x130c
        0x00001230:    f7fffd98    ....    BL       __0printf$8 ; 0xd64
        0x00001234:    483c        <H      LDR      r0,[pc,#240] ; [0x1328] = 0x2000002c
        0x00001236:    2000        .       MOVS     r0,#0
        0x00001238:    bf00        ..      NOP      
        0x0000123a:    f001fd23    ..#.    BL       xTaskResumeAll ; 0x2c84
        0x0000123e:    f000ffcb    ....    BL       vTaskSuspendAll ; 0x21d8
        0x00001242:    f7fff9db    ....    BL       CLK_GetHXTFreq ; 0x5fc
        0x00001246:    4601        .F      MOV      r1,r0
        0x00001248:    a038        8.      ADR      r0,{pc}+0xe4 ; 0x132c
        0x0000124a:    f7fffd8b    ....    BL       __0printf$8 ; 0xd64
        0x0000124e:    4836        6H      LDR      r0,[pc,#216] ; [0x1328] = 0x2000002c
        0x00001250:    2000        .       MOVS     r0,#0
        0x00001252:    bf00        ..      NOP      
        0x00001254:    f001fd16    ....    BL       xTaskResumeAll ; 0x2c84
        0x00001258:    f000ffbe    ....    BL       vTaskSuspendAll ; 0x21d8
        0x0000125c:    f7fff9d8    ....    BL       CLK_GetLXTFreq ; 0x610
        0x00001260:    4601        .F      MOV      r1,r0
        0x00001262:    a038        8.      ADR      r0,{pc}+0xe2 ; 0x1344
        0x00001264:    f7fffd7e    ..~.    BL       __0printf$8 ; 0xd64
        0x00001268:    482f        /H      LDR      r0,[pc,#188] ; [0x1328] = 0x2000002c
        0x0000126a:    2000        .       MOVS     r0,#0
        0x0000126c:    bf00        ..      NOP      
        0x0000126e:    f001fd09    ....    BL       xTaskResumeAll ; 0x2c84
        0x00001272:    f000ffb1    ....    BL       vTaskSuspendAll ; 0x21d8
        0x00001276:    f7fff9d7    ....    BL       CLK_GetPCLK0Freq ; 0x628
        0x0000127a:    4601        .F      MOV      r1,r0
        0x0000127c:    a037        7.      ADR      r0,{pc}+0xe0 ; 0x135c
        0x0000127e:    f7fffd71    ..q.    BL       __0printf$8 ; 0xd64
        0x00001282:    4829        )H      LDR      r0,[pc,#164] ; [0x1328] = 0x2000002c
        0x00001284:    2000        .       MOVS     r0,#0
        0x00001286:    bf00        ..      NOP      
        0x00001288:    f001fcfc    ....    BL       xTaskResumeAll ; 0x2c84
        0x0000128c:    f000ffa4    ....    BL       vTaskSuspendAll ; 0x21d8
        0x00001290:    f7fff9fc    ....    BL       CLK_GetPCLK1Freq ; 0x68c
        0x00001294:    4601        .F      MOV      r1,r0
        0x00001296:    a038        8.      ADR      r0,{pc}+0xe2 ; 0x1378
        0x00001298:    f7fffd64    ..d.    BL       __0printf$8 ; 0xd64
        0x0000129c:    4822        "H      LDR      r0,[pc,#136] ; [0x1328] = 0x2000002c
        0x0000129e:    2000        .       MOVS     r0,#0
        0x000012a0:    bf00        ..      NOP      
        0x000012a2:    f001fcef    ....    BL       xTaskResumeAll ; 0x2c84
        0x000012a6:    f7fffb4b    ..K.    BL       LED_Init ; 0x940
        0x000012aa:    f7fffc47    ..G.    BL       TIMER1_Init ; 0xb3c
        0x000012ae:    2400        .$      MOVS     r4,#0
        0x000012b0:    9400        ..      STR      r4,[sp,#0]
        0x000012b2:    4623        #F      MOV      r3,r4
        0x000012b4:    2280        ."      MOVS     r2,#0x80
        0x000012b6:    a137        7.      ADR      r1,{pc}+0xde ; 0x1394
        0x000012b8:    4838        8H      LDR      r0,[pc,#224] ; [0x139c] = 0x22a1
        0x000012ba:    9401        ..      STR      r4,[sp,#4]
        0x000012bc:    f001fbac    ....    BL       xTaskCreate ; 0x2a18
        0x000012c0:    9400        ..      STR      r4,[sp,#0]
        0x000012c2:    2300        .#      MOVS     r3,#0
        0x000012c4:    2280        ."      MOVS     r2,#0x80
        0x000012c6:    a136        6.      ADR      r1,{pc}+0xda ; 0x13a0
        0x000012c8:    4837        7H      LDR      r0,[pc,#220] ; [0x13a8] = 0x22d1
        0x000012ca:    9401        ..      STR      r4,[sp,#4]
        0x000012cc:    f001fba4    ....    BL       xTaskCreate ; 0x2a18
        0x000012d0:    9400        ..      STR      r4,[sp,#0]
        0x000012d2:    2300        .#      MOVS     r3,#0
        0x000012d4:    2280        ."      MOVS     r2,#0x80
        0x000012d6:    a135        5.      ADR      r1,{pc}+0xd6 ; 0x13ac
        0x000012d8:    4836        6H      LDR      r0,[pc,#216] ; [0x13b4] = 0x2271
        0x000012da:    9401        ..      STR      r4,[sp,#4]
        0x000012dc:    f001fb9c    ....    BL       xTaskCreate ; 0x2a18
        0x000012e0:    9400        ..      STR      r4,[sp,#0]
        0x000012e2:    2300        .#      MOVS     r3,#0
        0x000012e4:    2280        ."      MOVS     r2,#0x80
        0x000012e6:    a134        4.      ADR      r1,{pc}+0xd2 ; 0x13b8
        0x000012e8:    4836        6H      LDR      r0,[pc,#216] ; [0x13c4] = 0x23b1
        0x000012ea:    9401        ..      STR      r4,[sp,#4]
        0x000012ec:    f001fb94    ....    BL       xTaskCreate ; 0x2a18
        0x000012f0:    9400        ..      STR      r4,[sp,#0]
        0x000012f2:    2300        .#      MOVS     r3,#0
        0x000012f4:    2280        ."      MOVS     r2,#0x80
        0x000012f6:    a134        4.      ADR      r1,{pc}+0xd2 ; 0x13c8
        0x000012f8:    4836        6H      LDR      r0,[pc,#216] ; [0x13d4] = 0x2349
        0x000012fa:    9401        ..      STR      r4,[sp,#4]
        0x000012fc:    f001fb8c    ....    BL       xTaskCreate ; 0x2a18
        0x00001300:    f000ff32    ..2.    BL       vTaskStartScheduler ; 0x2168
        0x00001304:    e7fe        ..      B        0x1304 ; main + 240
    $d
        0x00001306:    0000        ..      DCW    0
        0x00001308:    40070000    ...@    DCD    1074200576
        0x0000130c:    4c430a0d    ..CL    DCD    1279461901
        0x00001310:    65475f4b    K_Ge    DCD    1699176267
        0x00001314:    55504374    tCPU    DCD    1431323508
        0x00001318:    71657246    Freq    DCD    1902473798
        0x0000131c:    25203a20     : %    DCD    622869024
        0x00001320:    0a0d6438    8d..    DCD    168649784
        0x00001324:    00000000    ....    DCD    0
        0x00001328:    2000002c    ,..     DCD    536870956
        0x0000132c:    5f4b4c43    CLK_    DCD    1598770243
        0x00001330:    48746547    GetH    DCD    1215587655
        0x00001334:    72465458    XTFr    DCD    1917211736
        0x00001338:    3a207165    eq :    DCD    975204709
        0x0000133c:    64382520     %8d    DCD    1681401120
        0x00001340:    00000a0d    ....    DCD    2573
        0x00001344:    5f4b4c43    CLK_    DCD    1598770243
        0x00001348:    4c746547    GetL    DCD    1282696519
        0x0000134c:    72465458    XTFr    DCD    1917211736
        0x00001350:    3a207165    eq :    DCD    975204709
        0x00001354:    64382520     %8d    DCD    1681401120
        0x00001358:    00000a0d    ....    DCD    2573
        0x0000135c:    5f4b4c43    CLK_    DCD    1598770243
        0x00001360:    50746547    GetP    DCD    1349805383
        0x00001364:    304b4c43    CLK0    DCD    810241091
        0x00001368:    71657246    Freq    DCD    1902473798
        0x0000136c:    25203a20     : %    DCD    622869024
        0x00001370:    0a0d6438    8d..    DCD    168649784
        0x00001374:    00000000    ....    DCD    0
        0x00001378:    5f4b4c43    CLK_    DCD    1598770243
        0x0000137c:    50746547    GetP    DCD    1349805383
        0x00001380:    314b4c43    CLK1    DCD    827018307
        0x00001384:    71657246    Freq    DCD    1902473798
        0x00001388:    25203a20     : %    DCD    622869024
        0x0000138c:    0a0d6438    8d..    DCD    168649784
        0x00001390:    00000000    ....    DCD    0
        0x00001394:    736d3031    10ms    DCD    1936535601
        0x00001398:    00000000    ....    DCD    0
        0x0000139c:    000022a1    ."..    DCD    8865
        0x000013a0:    736d3035    50ms    DCD    1936535605
        0x000013a4:    00000000    ....    DCD    0
        0x000013a8:    000022d1    ."..    DCD    8913
        0x000013ac:    6d303031    100m    DCD    1831874609
        0x000013b0:    00000073    s...    DCD    115
        0x000013b4:    00002271    q"..    DCD    8817
        0x000013b8:    69736952    Risi    DCD    1769171282
        0x000013bc:    6c46676e    ngFl    DCD    1816553326
        0x000013c0:    00006761    ag..    DCD    26465
        0x000013c4:    000023b1    .#..    DCD    9137
        0x000013c8:    61657243    Crea    DCD    1634038339
        0x000013cc:    61546574    teTa    DCD    1632920948
        0x000013d0:    00006b73    sk..    DCD    27507
        0x000013d4:    00002349    I#..    DCD    9033
    $t
    i.osGetCPUUsage
    osGetCPUUsage
        0x000013d8:    4801        .H      LDR      r0,[pc,#4] ; [0x13e0] = 0x200000b0
        0x000013da:    6840        @h      LDR      r0,[r0,#4]
        0x000013dc:    b280        ..      UXTH     r0,r0
        0x000013de:    4770        pG      BX       lr
    $d
        0x000013e0:    200000b0    ...     DCD    536871088
    $t
    i.prvAddCurrentTaskToDelayedList
    prvAddCurrentTaskToDelayedList
        0x000013e4:    e92d41f0    -..A    PUSH     {r4-r8,lr}
        0x000013e8:    4e18        .N      LDR      r6,[pc,#96] ; [0x144c] = 0x2000003c
        0x000013ea:    460f        .F      MOV      r7,r1
        0x000013ec:    4604        .F      MOV      r4,r0
        0x000013ee:    68f5        .h      LDR      r5,[r6,#0xc]
        0x000013f0:    6830        0h      LDR      r0,[r6,#0]
        0x000013f2:    1d00        ..      ADDS     r0,r0,#4
        0x000013f4:    f000fc88    ....    BL       uxListRemove ; 0x1d08
        0x000013f8:    b938        8.      CBNZ     r0,0x140a ; prvAddCurrentTaskToDelayedList + 38
        0x000013fa:    6830        0h      LDR      r0,[r6,#0]
        0x000013fc:    f890102c    ..,.    LDRB     r1,[r0,#0x2c]
        0x00001400:    2001        .       MOVS     r0,#1
        0x00001402:    4088        .@      LSLS     r0,r0,r1
        0x00001404:    6931        1i      LDR      r1,[r6,#0x10]
        0x00001406:    4381        .C      BICS     r1,r1,r0
        0x00001408:    6131        1a      STR      r1,[r6,#0x10]
        0x0000140a:    1c60        `.      ADDS     r0,r4,#1
        0x0000140c:    d107        ..      BNE      0x141e ; prvAddCurrentTaskToDelayedList + 58
        0x0000140e:    b137        7.      CBZ      r7,0x141e ; prvAddCurrentTaskToDelayedList + 58
        0x00001410:    6831        1h      LDR      r1,[r6,#0]
        0x00001412:    e8bd41f0    ...A    POP      {r4-r8,lr}
        0x00001416:    480e        .H      LDR      r0,[pc,#56] ; [0x1450] = 0x200001bc
        0x00001418:    1d09        ..      ADDS     r1,r1,#4
        0x0000141a:    f000bce7    ....    B.W      vListInsertEnd ; 0x1dec
        0x0000141e:    6830        0h      LDR      r0,[r6,#0]
        0x00001420:    442c        ,D      ADD      r4,r4,r5
        0x00001422:    42ac        .B      CMP      r4,r5
        0x00001424:    6044        D`      STR      r4,[r0,#4]
        0x00001426:    6831        1h      LDR      r1,[r6,#0]
        0x00001428:    d205        ..      BCS      0x1436 ; prvAddCurrentTaskToDelayedList + 82
        0x0000142a:    6bb0        .k      LDR      r0,[r6,#0x38]
        0x0000142c:    e8bd41f0    ...A    POP      {r4-r8,lr}
        0x00001430:    1d09        ..      ADDS     r1,r1,#4
        0x00001432:    f000bcc3    ....    B.W      vListInsert ; 0x1dbc
        0x00001436:    6b70        pk      LDR      r0,[r6,#0x34]
        0x00001438:    1d09        ..      ADDS     r1,r1,#4
        0x0000143a:    f000fcbf    ....    BL       vListInsert ; 0x1dbc
        0x0000143e:    6ab0        .j      LDR      r0,[r6,#0x28]
        0x00001440:    4284        .B      CMP      r4,r0
        0x00001442:    d200        ..      BCS      0x1446 ; prvAddCurrentTaskToDelayedList + 98
        0x00001444:    62b4        .b      STR      r4,[r6,#0x28]
        0x00001446:    e8bd81f0    ....    POP      {r4-r8,pc}
    $d
        0x0000144a:    0000        ..      DCW    0
        0x0000144c:    2000003c    <..     DCD    536870972
        0x00001450:    200001bc    ...     DCD    536871356
    $t
    i.prvAddNewTaskToReadyList
    prvAddNewTaskToReadyList
        0x00001454:    e92d41f0    -..A    PUSH     {r4-r8,lr}
        0x00001458:    4605        .F      MOV      r5,r0
        0x0000145a:    f000fcd3    ....    BL       vPortEnterCritical ; 0x1e04
        0x0000145e:    4e2e        .N      LDR      r6,[pc,#184] ; [0x1518] = 0x2000003c
        0x00001460:    68b0        .h      LDR      r0,[r6,#8]
        0x00001462:    1c40        @.      ADDS     r0,r0,#1
        0x00001464:    60b0        .`      STR      r0,[r6,#8]
        0x00001466:    6830        0h      LDR      r0,[r6,#0]
        0x00001468:    4f2c        ,O      LDR      r7,[pc,#176] ; [0x151c] = 0x20000108
        0x0000146a:    b110        ..      CBZ      r0,0x1472 ; prvAddNewTaskToReadyList + 30
        0x0000146c:    6970        pi      LDR      r0,[r6,#0x14]
        0x0000146e:    b340        @.      CBZ      r0,0x14c2 ; prvAddNewTaskToReadyList + 110
        0x00001470:    e02d        -.      B        0x14ce ; prvAddNewTaskToReadyList + 122
        0x00001472:    6035        5`      STR      r5,[r6,#0]
        0x00001474:    68b0        .h      LDR      r0,[r6,#8]
        0x00001476:    2801        .(      CMP      r0,#1
        0x00001478:    d129        ).      BNE      0x14ce ; prvAddNewTaskToReadyList + 122
        0x0000147a:    2400        .$      MOVS     r4,#0
        0x0000147c:    eb040084    ....    ADD      r0,r4,r4,LSL #2
        0x00001480:    eb070080    ....    ADD      r0,r7,r0,LSL #2
        0x00001484:    f000fc8c    ....    BL       vListInitialise ; 0x1da0
        0x00001488:    1c64        d.      ADDS     r4,r4,#1
        0x0000148a:    2c05        .,      CMP      r4,#5
        0x0000148c:    d3f6        ..      BCC      0x147c ; prvAddNewTaskToReadyList + 40
        0x0000148e:    4823        #H      LDR      r0,[pc,#140] ; [0x151c] = 0x20000108
        0x00001490:    3064        d0      ADDS     r0,r0,#0x64
        0x00001492:    f000fc85    ....    BL       vListInitialise ; 0x1da0
        0x00001496:    4821        !H      LDR      r0,[pc,#132] ; [0x151c] = 0x20000108
        0x00001498:    3078        x0      ADDS     r0,r0,#0x78
        0x0000149a:    f000fc81    ....    BL       vListInitialise ; 0x1da0
        0x0000149e:    481f        .H      LDR      r0,[pc,#124] ; [0x151c] = 0x20000108
        0x000014a0:    308c        .0      ADDS     r0,r0,#0x8c
        0x000014a2:    f000fc7d    ..}.    BL       vListInitialise ; 0x1da0
        0x000014a6:    481d        .H      LDR      r0,[pc,#116] ; [0x151c] = 0x20000108
        0x000014a8:    30a0        .0      ADDS     r0,r0,#0xa0
        0x000014aa:    f000fc79    ..y.    BL       vListInitialise ; 0x1da0
        0x000014ae:    481b        .H      LDR      r0,[pc,#108] ; [0x151c] = 0x20000108
        0x000014b0:    30b4        .0      ADDS     r0,r0,#0xb4
        0x000014b2:    f000fc75    ..u.    BL       vListInitialise ; 0x1da0
        0x000014b6:    4819        .H      LDR      r0,[pc,#100] ; [0x151c] = 0x20000108
        0x000014b8:    3064        d0      ADDS     r0,r0,#0x64
        0x000014ba:    6370        pc      STR      r0,[r6,#0x34]
        0x000014bc:    3014        .0      ADDS     r0,r0,#0x14
        0x000014be:    63b0        .c      STR      r0,[r6,#0x38]
        0x000014c0:    e005        ..      B        0x14ce ; prvAddNewTaskToReadyList + 122
        0x000014c2:    6830        0h      LDR      r0,[r6,#0]
        0x000014c4:    6ae9        .j      LDR      r1,[r5,#0x2c]
        0x000014c6:    6ac0        .j      LDR      r0,[r0,#0x2c]
        0x000014c8:    4288        .B      CMP      r0,r1
        0x000014ca:    d800        ..      BHI      0x14ce ; prvAddNewTaskToReadyList + 122
        0x000014cc:    6035        5`      STR      r5,[r6,#0]
        0x000014ce:    6a70        pj      LDR      r0,[r6,#0x24]
        0x000014d0:    2101        .!      MOVS     r1,#1
        0x000014d2:    1c40        @.      ADDS     r0,r0,#1
        0x000014d4:    6270        pb      STR      r0,[r6,#0x24]
        0x000014d6:    6468        hd      STR      r0,[r5,#0x44]
        0x000014d8:    6ae8        .j      LDR      r0,[r5,#0x2c]
        0x000014da:    6932        2i      LDR      r2,[r6,#0x10]
        0x000014dc:    4081        .@      LSLS     r1,r1,r0
        0x000014de:    4311        .C      ORRS     r1,r1,r2
        0x000014e0:    6131        1a      STR      r1,[r6,#0x10]
        0x000014e2:    eb000080    ....    ADD      r0,r0,r0,LSL #2
        0x000014e6:    eb070080    ....    ADD      r0,r7,r0,LSL #2
        0x000014ea:    1d29        ).      ADDS     r1,r5,#4
        0x000014ec:    f000fc7e    ..~.    BL       vListInsertEnd ; 0x1dec
        0x000014f0:    f000fca8    ....    BL       vPortExitCritical ; 0x1e44
        0x000014f4:    6970        pi      LDR      r0,[r6,#0x14]
        0x000014f6:    2800        .(      CMP      r0,#0
        0x000014f8:    d00c        ..      BEQ      0x1514 ; prvAddNewTaskToReadyList + 192
        0x000014fa:    6830        0h      LDR      r0,[r6,#0]
        0x000014fc:    6ae9        .j      LDR      r1,[r5,#0x2c]
        0x000014fe:    6ac0        .j      LDR      r0,[r0,#0x2c]
        0x00001500:    4288        .B      CMP      r0,r1
        0x00001502:    d207        ..      BCS      0x1514 ; prvAddNewTaskToReadyList + 192
        0x00001504:    4906        .I      LDR      r1,[pc,#24] ; [0x1520] = 0xe000ed04
        0x00001506:    f04f5080    O..P    MOV      r0,#0x10000000
        0x0000150a:    6008        .`      STR      r0,[r1,#0]
        0x0000150c:    f3bf8f4f    ..O.    DSB      
        0x00001510:    f3bf8f6f    ..o.    ISB      
        0x00001514:    e8bd81f0    ....    POP      {r4-r8,pc}
    $d
        0x00001518:    2000003c    <..     DCD    536870972
        0x0000151c:    20000108    ...     DCD    536871176
        0x00001520:    e000ed04    ....    DCD    3758157060
    $t
    i.prvCheckForValidListAndQueue
    prvCheckForValidListAndQueue
        0x00001524:    b510        ..      PUSH     {r4,lr}
        0x00001526:    f000fc6d    ..m.    BL       vPortEnterCritical ; 0x1e04
        0x0000152a:    4c0e        .L      LDR      r4,[pc,#56] ; [0x1564] = 0x20000078
        0x0000152c:    6820         h      LDR      r0,[r4,#0]
        0x0000152e:    b9a0        ..      CBNZ     r0,0x155a ; prvCheckForValidListAndQueue + 54
        0x00001530:    480d        .H      LDR      r0,[pc,#52] ; [0x1568] = 0x200001d0
        0x00001532:    f000fc35    ..5.    BL       vListInitialise ; 0x1da0
        0x00001536:    480c        .H      LDR      r0,[pc,#48] ; [0x1568] = 0x200001d0
        0x00001538:    3014        .0      ADDS     r0,r0,#0x14
        0x0000153a:    f000fc31    ..1.    BL       vListInitialise ; 0x1da0
        0x0000153e:    480a        .H      LDR      r0,[pc,#40] ; [0x1568] = 0x200001d0
        0x00001540:    60e0        .`      STR      r0,[r4,#0xc]
        0x00001542:    3014        .0      ADDS     r0,r0,#0x14
        0x00001544:    6120         a      STR      r0,[r4,#0x10]
        0x00001546:    2200        ."      MOVS     r2,#0
        0x00001548:    210c        .!      MOVS     r1,#0xc
        0x0000154a:    2014        .       MOVS     r0,#0x14
        0x0000154c:    f000fffe    ....    BL       xQueueGenericCreate ; 0x254c
        0x00001550:    6020         `      STR      r0,[r4,#0]
        0x00001552:    b110        ..      CBZ      r0,0x155a ; prvCheckForValidListAndQueue + 54
        0x00001554:    a105        ..      ADR      r1,{pc}+0x18 ; 0x156c
        0x00001556:    f000fcf3    ....    BL       vQueueAddToRegistry ; 0x1f40
        0x0000155a:    e8bd4010    ...@    POP      {r4,lr}
        0x0000155e:    f000bc71    ..q.    B.W      vPortExitCritical ; 0x1e44
    $d
        0x00001562:    0000        ..      DCW    0
        0x00001564:    20000078    x..     DCD    536871032
        0x00001568:    200001d0    ...     DCD    536871376
        0x0000156c:    51726d54    TmrQ    DCD    1366453588
        0x00001570:    00000000    ....    DCD    0
    $t
    i.prvCopyDataFromQueue
    prvCopyDataFromQueue
        0x00001574:    b430        0.      PUSH     {r4,r5}
        0x00001576:    6c02        .l      LDR      r2,[r0,#0x40]
        0x00001578:    460b        .F      MOV      r3,r1
        0x0000157a:    2a00        .*      CMP      r2,#0
        0x0000157c:    d00b        ..      BEQ      0x1596 ; prvCopyDataFromQueue + 34
        0x0000157e:    68c1        .h      LDR      r1,[r0,#0xc]
        0x00001580:    4411        .D      ADD      r1,r1,r2
        0x00001582:    60c1        .`      STR      r1,[r0,#0xc]
        0x00001584:    6844        Dh      LDR      r4,[r0,#4]
        0x00001586:    42a1        .B      CMP      r1,r4
        0x00001588:    d301        ..      BCC      0x158e ; prvCopyDataFromQueue + 26
        0x0000158a:    6801        .h      LDR      r1,[r0,#0]
        0x0000158c:    60c1        .`      STR      r1,[r0,#0xc]
        0x0000158e:    bc30        0.      POP      {r4,r5}
        0x00001590:    4618        .F      MOV      r0,r3
        0x00001592:    f7febedb    ....    B        __aeabi_memcpy ; 0x34c
        0x00001596:    bc30        0.      POP      {r4,r5}
        0x00001598:    4770        pG      BX       lr
    i.prvCopyDataToQueue
    prvCopyDataToQueue
        0x0000159a:    e92d41f0    -..A    PUSH     {r4-r8,lr}
        0x0000159e:    6b85        .k      LDR      r5,[r0,#0x38]
        0x000015a0:    4617        .F      MOV      r7,r2
        0x000015a2:    4604        .F      MOV      r4,r0
        0x000015a4:    2600        .&      MOVS     r6,#0
        0x000015a6:    6c02        .l      LDR      r2,[r0,#0x40]
        0x000015a8:    b182        ..      CBZ      r2,0x15cc ; prvCopyDataToQueue + 50
        0x000015aa:    b1c7        ..      CBZ      r7,0x15de ; prvCopyDataToQueue + 68
        0x000015ac:    68e0        .h      LDR      r0,[r4,#0xc]
        0x000015ae:    f7fefecd    ....    BL       __aeabi_memcpy ; 0x34c
        0x000015b2:    68e1        .h      LDR      r1,[r4,#0xc]
        0x000015b4:    6c20         l      LDR      r0,[r4,#0x40]
        0x000015b6:    1a09        ..      SUBS     r1,r1,r0
        0x000015b8:    60e1        .`      STR      r1,[r4,#0xc]
        0x000015ba:    6822        "h      LDR      r2,[r4,#0]
        0x000015bc:    4291        .B      CMP      r1,r2
        0x000015be:    d202        ..      BCS      0x15c6 ; prvCopyDataToQueue + 44
        0x000015c0:    6861        ah      LDR      r1,[r4,#4]
        0x000015c2:    1a08        ..      SUBS     r0,r1,r0
        0x000015c4:    60e0        .`      STR      r0,[r4,#0xc]
        0x000015c6:    2f02        ./      CMP      r7,#2
        0x000015c8:    d016        ..      BEQ      0x15f8 ; prvCopyDataToQueue + 94
        0x000015ca:    e017        ..      B        0x15fc ; prvCopyDataToQueue + 98
        0x000015cc:    6820         h      LDR      r0,[r4,#0]
        0x000015ce:    b9a8        ..      CBNZ     r0,0x15fc ; prvCopyDataToQueue + 98
        0x000015d0:    6860        `h      LDR      r0,[r4,#4]
        0x000015d2:    f001fad1    ....    BL       xTaskPriorityDisinherit ; 0x2b78
        0x000015d6:    4606        .F      MOV      r6,r0
        0x000015d8:    2000        .       MOVS     r0,#0
        0x000015da:    6060        ``      STR      r0,[r4,#4]
        0x000015dc:    e00e        ..      B        0x15fc ; prvCopyDataToQueue + 98
        0x000015de:    68a0        .h      LDR      r0,[r4,#8]
        0x000015e0:    f7fefeb4    ....    BL       __aeabi_memcpy ; 0x34c
        0x000015e4:    6c21        !l      LDR      r1,[r4,#0x40]
        0x000015e6:    68a0        .h      LDR      r0,[r4,#8]
        0x000015e8:    4408        .D      ADD      r0,r0,r1
        0x000015ea:    60a0        .`      STR      r0,[r4,#8]
        0x000015ec:    6861        ah      LDR      r1,[r4,#4]
        0x000015ee:    4288        .B      CMP      r0,r1
        0x000015f0:    d304        ..      BCC      0x15fc ; prvCopyDataToQueue + 98
        0x000015f2:    6820         h      LDR      r0,[r4,#0]
        0x000015f4:    60a0        .`      STR      r0,[r4,#8]
        0x000015f6:    e001        ..      B        0x15fc ; prvCopyDataToQueue + 98
        0x000015f8:    b105        ..      CBZ      r5,0x15fc ; prvCopyDataToQueue + 98
        0x000015fa:    1e6d        m.      SUBS     r5,r5,#1
        0x000015fc:    1c6d        m.      ADDS     r5,r5,#1
        0x000015fe:    63a5        .c      STR      r5,[r4,#0x38]
        0x00001600:    4630        0F      MOV      r0,r6
        0x00001602:    e8bd81f0    ....    POP      {r4-r8,pc}
    i.prvDeleteTCB
    prvDeleteTCB
        0x00001606:    b510        ..      PUSH     {r4,lr}
        0x00001608:    4604        .F      MOV      r4,r0
        0x0000160a:    6b00        .k      LDR      r0,[r0,#0x30]
        0x0000160c:    f000fc2e    ....    BL       vPortFree ; 0x1e6c
        0x00001610:    4620         F      MOV      r0,r4
        0x00001612:    e8bd4010    ...@    POP      {r4,lr}
        0x00001616:    f000bc29    ..).    B.W      vPortFree ; 0x1e6c
        0x0000161a:    0000        ..      MOVS     r0,r0
    i.prvHeapInit
    prvHeapInit
        0x0000161c:    4810        .H      LDR      r0,[pc,#64] ; [0x1660] = 0x200001f8
        0x0000161e:    f44f4180    O..A    MOV      r1,#0x4000
        0x00001622:    0742        B.      LSLS     r2,r0,#29
        0x00001624:    d006        ..      BEQ      0x1634 ; prvHeapInit + 24
        0x00001626:    1dc0        ..      ADDS     r0,r0,#7
        0x00001628:    490d        .I      LDR      r1,[pc,#52] ; [0x1660] = 0x200001f8
        0x0000162a:    f0200007     ...    BIC      r0,r0,#7
        0x0000162e:    1a41        A.      SUBS     r1,r0,r1
        0x00001630:    f5c14180    ...A    RSB      r1,r1,#0x4000
        0x00001634:    4a0b        .J      LDR      r2,[pc,#44] ; [0x1664] = 0x200000a8
        0x00001636:    2300        .#      MOVS     r3,#0
        0x00001638:    4401        .D      ADD      r1,r1,r0
        0x0000163a:    e9c20300    ....    STRD     r0,r3,[r2,#0]
        0x0000163e:    3908        .9      SUBS     r1,r1,#8
        0x00001640:    3a10        .:      SUBS     r2,r2,#0x10
        0x00001642:    f0210107    !...    BIC      r1,r1,#7
        0x00001646:    6011        .`      STR      r1,[r2,#0]
        0x00001648:    604b        K`      STR      r3,[r1,#4]
        0x0000164a:    600b        .`      STR      r3,[r1,#0]
        0x0000164c:    1a0b        ..      SUBS     r3,r1,r0
        0x0000164e:    e9c01300    ....    STRD     r1,r3,[r0,#0]
        0x00001652:    6093        .`      STR      r3,[r2,#8]
        0x00001654:    f04f4000    O..@    MOV      r0,#0x80000000
        0x00001658:    6053        S`      STR      r3,[r2,#4]
        0x0000165a:    60d0        .`      STR      r0,[r2,#0xc]
        0x0000165c:    4770        pG      BX       lr
    $d
        0x0000165e:    0000        ..      DCW    0
        0x00001660:    200001f8    ...     DCD    536871416
        0x00001664:    200000a8    ...     DCD    536871080
    $t
    i.prvIdleTask
    prvIdleTask
        0x00001668:    4e14        .N      LDR      r6,[pc,#80] ; [0x16bc] = 0x200001a8
        0x0000166a:    4d15        .M      LDR      r5,[pc,#84] ; [0x16c0] = 0x2000003c
        0x0000166c:    f1a607a0    ....    SUB      r7,r6,#0xa0
        0x00001670:    f04f5880    O..X    MOV      r8,#0x10000000
        0x00001674:    f8df904c    ..L.    LDR      r9,[pc,#76] ; [0x16c4] = 0xe000ed04
        0x00001678:    e011        ..      B        0x169e ; prvIdleTask + 54
        0x0000167a:    f000fbc3    ....    BL       vPortEnterCritical ; 0x1e04
        0x0000167e:    68f0        .h      LDR      r0,[r6,#0xc]
        0x00001680:    68c4        .h      LDR      r4,[r0,#0xc]
        0x00001682:    1d20         .      ADDS     r0,r4,#4
        0x00001684:    f000fb40    ..@.    BL       uxListRemove ; 0x1d08
        0x00001688:    68a8        .h      LDR      r0,[r5,#8]
        0x0000168a:    1e40        @.      SUBS     r0,r0,#1
        0x0000168c:    60a8        .`      STR      r0,[r5,#8]
        0x0000168e:    6868        hh      LDR      r0,[r5,#4]
        0x00001690:    1e40        @.      SUBS     r0,r0,#1
        0x00001692:    6068        h`      STR      r0,[r5,#4]
        0x00001694:    f000fbd6    ....    BL       vPortExitCritical ; 0x1e44
        0x00001698:    4620         F      MOV      r0,r4
        0x0000169a:    f7ffffb4    ....    BL       prvDeleteTCB ; 0x1606
        0x0000169e:    6868        hh      LDR      r0,[r5,#4]
        0x000016a0:    2800        .(      CMP      r0,#0
        0x000016a2:    d1ea        ..      BNE      0x167a ; prvIdleTask + 18
        0x000016a4:    6838        8h      LDR      r0,[r7,#0]
        0x000016a6:    2801        .(      CMP      r0,#1
        0x000016a8:    d905        ..      BLS      0x16b6 ; prvIdleTask + 78
        0x000016aa:    f8c98000    ....    STR      r8,[r9,#0]
        0x000016ae:    f3bf8f4f    ..O.    DSB      
        0x000016b2:    f3bf8f6f    ..o.    ISB      
        0x000016b6:    f000fb3b    ..;.    BL       vApplicationIdleHook ; 0x1d30
        0x000016ba:    e7f0        ..      B        0x169e ; prvIdleTask + 54
    $d
        0x000016bc:    200001a8    ...     DCD    536871336
        0x000016c0:    2000003c    <..     DCD    536870972
        0x000016c4:    e000ed04    ....    DCD    3758157060
    $t
    i.prvInitialiseNewTask
    prvInitialiseNewTask
        0x000016c8:    e92d47f0    -..G    PUSH     {r4-r10,lr}
        0x000016cc:    460e        .F      MOV      r6,r1
        0x000016ce:    e9dd8409    ....    LDRD     r8,r4,[sp,#0x24]
        0x000016d2:    4617        .F      MOV      r7,r2
        0x000016d4:    4682        .F      MOV      r10,r0
        0x000016d6:    0091        ..      LSLS     r1,r2,#2
        0x000016d8:    4699        .F      MOV      r9,r3
        0x000016da:    9d08        ..      LDR      r5,[sp,#0x20]
        0x000016dc:    22a5        ."      MOVS     r2,#0xa5
        0x000016de:    6b20         k      LDR      r0,[r4,#0x30]
        0x000016e0:    f7fefe46    ..F.    BL       __aeabi_memset ; 0x370
        0x000016e4:    f06f0103    o...    MVN      r1,#3
        0x000016e8:    6b20         k      LDR      r0,[r4,#0x30]
        0x000016ea:    eb010187    ....    ADD      r1,r1,r7,LSL #2
        0x000016ee:    4408        .D      ADD      r0,r0,r1
        0x000016f0:    f0200707     ...    BIC      r7,r0,#7
        0x000016f4:    0778        x.      LSLS     r0,r7,#29
        0x000016f6:    d007        ..      BEQ      0x1708 ; prvInitialiseNewTask + 64
        0x000016f8:    2050        P       MOVS     r0,#0x50
        0x000016fa:    f3808811    ....    MSR      BASEPRI,r0
        0x000016fe:    f3bf8f4f    ..O.    DSB      
        0x00001702:    f3bf8f6f    ..o.    ISB      
        0x00001706:    e7fe        ..      B        0x1706 ; prvInitialiseNewTask + 62
        0x00001708:    1822        ".      ADDS     r2,r4,r0
        0x0000170a:    5c31        1\      LDRB     r1,[r6,r0]
        0x0000170c:    f8821034    ..4.    STRB     r1,[r2,#0x34]
        0x00001710:    5c31        1\      LDRB     r1,[r6,r0]
        0x00001712:    b111        ..      CBZ      r1,0x171a ; prvInitialiseNewTask + 82
        0x00001714:    1c40        @.      ADDS     r0,r0,#1
        0x00001716:    2810        .(      CMP      r0,#0x10
        0x00001718:    d3f6        ..      BCC      0x1708 ; prvInitialiseNewTask + 64
        0x0000171a:    2600        .&      MOVS     r6,#0
        0x0000171c:    f8846043    ..C`    STRB     r6,[r4,#0x43]
        0x00001720:    2d05        .-      CMP      r5,#5
        0x00001722:    d300        ..      BCC      0x1726 ; prvInitialiseNewTask + 94
        0x00001724:    2504        .%      MOVS     r5,#4
        0x00001726:    62e5        .b      STR      r5,[r4,#0x2c]
        0x00001728:    e9c45613    ...V    STRD     r5,r6,[r4,#0x4c]
        0x0000172c:    1d20         .      ADDS     r0,r4,#4
        0x0000172e:    f000fb42    ..B.    BL       vListInitialiseItem ; 0x1db6
        0x00001732:    f1040018    ....    ADD      r0,r4,#0x18
        0x00001736:    f000fb3e    ..>.    BL       vListInitialiseItem ; 0x1db6
        0x0000173a:    6124        $a      STR      r4,[r4,#0x10]
        0x0000173c:    f1c50005    ....    RSB      r0,r5,#5
        0x00001740:    6264        db      STR      r4,[r4,#0x24]
        0x00001742:    61a0        .a      STR      r0,[r4,#0x18]
        0x00001744:    6566        fe      STR      r6,[r4,#0x54]
        0x00001746:    f8846058    ..X`    STRB     r6,[r4,#0x58]
        0x0000174a:    464a        JF      MOV      r2,r9
        0x0000174c:    4651        QF      MOV      r1,r10
        0x0000174e:    4638        8F      MOV      r0,r7
        0x00001750:    f000fa70    ..p.    BL       pxPortInitialiseStack ; 0x1c34
        0x00001754:    6020         `      STR      r0,[r4,#0]
        0x00001756:    f1b80f00    ....    CMP      r8,#0
        0x0000175a:    d001        ..      BEQ      0x1760 ; prvInitialiseNewTask + 152
        0x0000175c:    f8c84000    ...@    STR      r4,[r8,#0]
        0x00001760:    e8bd87f0    ....    POP      {r4-r10,pc}
    i.prvInsertBlockIntoFreeList
    prvInsertBlockIntoFreeList
        0x00001764:    b530        0.      PUSH     {r4,r5,lr}
        0x00001766:    4911        .I      LDR      r1,[pc,#68] ; [0x17ac] = 0x200000a8
        0x00001768:    e000        ..      B        0x176c ; prvInsertBlockIntoFreeList + 8
        0x0000176a:    4611        .F      MOV      r1,r2
        0x0000176c:    680a        .h      LDR      r2,[r1,#0]
        0x0000176e:    4282        .B      CMP      r2,r0
        0x00001770:    d3fb        ..      BCC      0x176a ; prvInsertBlockIntoFreeList + 6
        0x00001772:    684b        Kh      LDR      r3,[r1,#4]
        0x00001774:    185c        \.      ADDS     r4,r3,r1
        0x00001776:    4284        .B      CMP      r4,r0
        0x00001778:    d103        ..      BNE      0x1782 ; prvInsertBlockIntoFreeList + 30
        0x0000177a:    6840        @h      LDR      r0,[r0,#4]
        0x0000177c:    4418        .D      ADD      r0,r0,r3
        0x0000177e:    6048        H`      STR      r0,[r1,#4]
        0x00001780:    4608        .F      MOV      r0,r1
        0x00001782:    6843        Ch      LDR      r3,[r0,#4]
        0x00001784:    181c        ..      ADDS     r4,r3,r0
        0x00001786:    4294        .B      CMP      r4,r2
        0x00001788:    d109        ..      BNE      0x179e ; prvInsertBlockIntoFreeList + 58
        0x0000178a:    4c08        .L      LDR      r4,[pc,#32] ; [0x17ac] = 0x200000a8
        0x0000178c:    3c10        .<      SUBS     r4,r4,#0x10
        0x0000178e:    6824        $h      LDR      r4,[r4,#0]
        0x00001790:    42a2        .B      CMP      r2,r4
        0x00001792:    d009        ..      BEQ      0x17a8 ; prvInsertBlockIntoFreeList + 68
        0x00001794:    6852        Rh      LDR      r2,[r2,#4]
        0x00001796:    441a        .D      ADD      r2,r2,r3
        0x00001798:    6042        B`      STR      r2,[r0,#4]
        0x0000179a:    680a        .h      LDR      r2,[r1,#0]
        0x0000179c:    6812        .h      LDR      r2,[r2,#0]
        0x0000179e:    6002        .`      STR      r2,[r0,#0]
        0x000017a0:    4281        .B      CMP      r1,r0
        0x000017a2:    d000        ..      BEQ      0x17a6 ; prvInsertBlockIntoFreeList + 66
        0x000017a4:    6008        .`      STR      r0,[r1,#0]
        0x000017a6:    bd30        0.      POP      {r4,r5,pc}
        0x000017a8:    6004        .`      STR      r4,[r0,#0]
        0x000017aa:    e7f9        ..      B        0x17a0 ; prvInsertBlockIntoFreeList + 60
    $d
        0x000017ac:    200000a8    ...     DCD    536871080
    $t
    i.prvInsertTimerInActiveList
    prvInsertTimerInActiveList
        0x000017b0:    b570        p.      PUSH     {r4-r6,lr}
        0x000017b2:    2400        .$      MOVS     r4,#0
        0x000017b4:    6041        A`      STR      r1,[r0,#4]
        0x000017b6:    4d0b        .M      LDR      r5,[pc,#44] ; [0x17e4] = 0x20000078
        0x000017b8:    6100        .a      STR      r0,[r0,#0x10]
        0x000017ba:    4291        .B      CMP      r1,r2
        0x000017bc:    d806        ..      BHI      0x17cc ; prvInsertTimerInActiveList + 28
        0x000017be:    1ad1        ..      SUBS     r1,r2,r3
        0x000017c0:    6982        .i      LDR      r2,[r0,#0x18]
        0x000017c2:    4291        .B      CMP      r1,r2
        0x000017c4:    d206        ..      BCS      0x17d4 ; prvInsertTimerInActiveList + 36
        0x000017c6:    1d01        ..      ADDS     r1,r0,#4
        0x000017c8:    6928        (i      LDR      r0,[r5,#0x10]
        0x000017ca:    e007        ..      B        0x17dc ; prvInsertTimerInActiveList + 44
        0x000017cc:    429a        .B      CMP      r2,r3
        0x000017ce:    d203        ..      BCS      0x17d8 ; prvInsertTimerInActiveList + 40
        0x000017d0:    4299        .B      CMP      r1,r3
        0x000017d2:    d301        ..      BCC      0x17d8 ; prvInsertTimerInActiveList + 40
        0x000017d4:    2401        .$      MOVS     r4,#1
        0x000017d6:    e003        ..      B        0x17e0 ; prvInsertTimerInActiveList + 48
        0x000017d8:    1d01        ..      ADDS     r1,r0,#4
        0x000017da:    68e8        .h      LDR      r0,[r5,#0xc]
        0x000017dc:    f000faee    ....    BL       vListInsert ; 0x1dbc
        0x000017e0:    4620         F      MOV      r0,r4
        0x000017e2:    bd70        p.      POP      {r4-r6,pc}
    $d
        0x000017e4:    20000078    x..     DCD    536871032
    $t
    i.prvIsQueueEmpty
    prvIsQueueEmpty
        0x000017e8:    b510        ..      PUSH     {r4,lr}
        0x000017ea:    4604        .F      MOV      r4,r0
        0x000017ec:    f000fb0a    ....    BL       vPortEnterCritical ; 0x1e04
        0x000017f0:    6ba0        .k      LDR      r0,[r4,#0x38]
        0x000017f2:    b120         .      CBZ      r0,0x17fe ; prvIsQueueEmpty + 22
        0x000017f4:    2400        .$      MOVS     r4,#0
        0x000017f6:    f000fb25    ..%.    BL       vPortExitCritical ; 0x1e44
        0x000017fa:    4620         F      MOV      r0,r4
        0x000017fc:    bd10        ..      POP      {r4,pc}
        0x000017fe:    2401        .$      MOVS     r4,#1
        0x00001800:    e7f9        ..      B        0x17f6 ; prvIsQueueEmpty + 14
    i.prvNotifyQueueSetContainer
    prvNotifyQueueSetContainer
        0x00001802:    b573        s.      PUSH     {r0,r1,r4-r6,lr}
        0x00001804:    2600        .&      MOVS     r6,#0
        0x00001806:    9800        ..      LDR      r0,[sp,#0]
        0x00001808:    6c84        .l      LDR      r4,[r0,#0x48]
        0x0000180a:    b15c        \.      CBZ      r4,0x1824 ; prvNotifyQueueSetContainer + 34
        0x0000180c:    6ba2        .k      LDR      r2,[r4,#0x38]
        0x0000180e:    6be0        .k      LDR      r0,[r4,#0x3c]
        0x00001810:    4282        .B      CMP      r2,r0
        0x00001812:    d30f        ..      BCC      0x1834 ; prvNotifyQueueSetContainer + 50
        0x00001814:    2050        P       MOVS     r0,#0x50
        0x00001816:    f3808811    ....    MSR      BASEPRI,r0
        0x0000181a:    f3bf8f4f    ..O.    DSB      
        0x0000181e:    f3bf8f6f    ..o.    ISB      
        0x00001822:    e7fe        ..      B        0x1822 ; prvNotifyQueueSetContainer + 32
        0x00001824:    2050        P       MOVS     r0,#0x50
        0x00001826:    f3808811    ....    MSR      BASEPRI,r0
        0x0000182a:    f3bf8f4f    ..O.    DSB      
        0x0000182e:    f3bf8f6f    ..o.    ISB      
        0x00001832:    e7fe        ..      B        0x1832 ; prvNotifyQueueSetContainer + 48
        0x00001834:    6ba2        .k      LDR      r2,[r4,#0x38]
        0x00001836:    4282        .B      CMP      r2,r0
        0x00001838:    d20c        ..      BCS      0x1854 ; prvNotifyQueueSetContainer + 82
        0x0000183a:    f9945045    ..EP    LDRSB    r5,[r4,#0x45]
        0x0000183e:    460a        .F      MOV      r2,r1
        0x00001840:    4669        iF      MOV      r1,sp
        0x00001842:    4620         F      MOV      r0,r4
        0x00001844:    f7fffea9    ....    BL       prvCopyDataToQueue ; 0x159a
        0x00001848:    4606        .F      MOV      r6,r0
        0x0000184a:    1c68        h.      ADDS     r0,r5,#1
        0x0000184c:    d004        ..      BEQ      0x1858 ; prvNotifyQueueSetContainer + 86
        0x0000184e:    1c6d        m.      ADDS     r5,r5,#1
        0x00001850:    f8845045    ..EP    STRB     r5,[r4,#0x45]
        0x00001854:    4630        0F      MOV      r0,r6
        0x00001856:    bd7c        |.      POP      {r2-r6,pc}
        0x00001858:    6a60        `j      LDR      r0,[r4,#0x24]
        0x0000185a:    2800        .(      CMP      r0,#0
        0x0000185c:    d0fa        ..      BEQ      0x1854 ; prvNotifyQueueSetContainer + 82
        0x0000185e:    f1040024    ..$.    ADD      r0,r4,#0x24
        0x00001862:    f001f9d5    ....    BL       xTaskRemoveFromEventList ; 0x2c10
        0x00001866:    2800        .(      CMP      r0,#0
        0x00001868:    d0f4        ..      BEQ      0x1854 ; prvNotifyQueueSetContainer + 82
        0x0000186a:    2601        .&      MOVS     r6,#1
        0x0000186c:    e7f2        ..      B        0x1854 ; prvNotifyQueueSetContainer + 82
        0x0000186e:    0000        ..      MOVS     r0,r0
    i.prvProcessReceivedCommands
    prvProcessReceivedCommands
        0x00001870:    b530        0.      PUSH     {r4,r5,lr}
        0x00001872:    b085        ..      SUB      sp,sp,#0x14
        0x00001874:    4d2b        +M      LDR      r5,[pc,#172] ; [0x1924] = 0x20000078
        0x00001876:    e04b        K.      B        0x1910 ; prvProcessReceivedCommands + 160
        0x00001878:    9801        ..      LDR      r0,[sp,#4]
        0x0000187a:    2800        .(      CMP      r0,#0
        0x0000187c:    db48        H.      BLT      0x1910 ; prvProcessReceivedCommands + 160
        0x0000187e:    9c03        ..      LDR      r4,[sp,#0xc]
        0x00001880:    6960        `i      LDR      r0,[r4,#0x14]
        0x00001882:    b110        ..      CBZ      r0,0x188a ; prvProcessReceivedCommands + 26
        0x00001884:    1d20         .      ADDS     r0,r4,#4
        0x00001886:    f000fa3f    ..?.    BL       uxListRemove ; 0x1d08
        0x0000188a:    a804        ..      ADD      r0,sp,#0x10
        0x0000188c:    f000f8b6    ....    BL       prvSampleTimeNow ; 0x19fc
        0x00001890:    4602        .F      MOV      r2,r0
        0x00001892:    9801        ..      LDR      r0,[sp,#4]
        0x00001894:    280a        .(      CMP      r0,#0xa
        0x00001896:    d23b        ;.      BCS      0x1910 ; prvProcessReceivedCommands + 160
        0x00001898:    e8dff000    ....    TBB      [pc,r0]
    $d
        0x0000189c:    3a050505    ...:    DCD    973407493
        0x000018a0:    05053726    &7..    DCD    84227878
        0x000018a4:    263a        :&      DCW    9786
    $t
        0x000018a6:    9802        ..      LDR      r0,[sp,#8]
        0x000018a8:    69a1        .i      LDR      r1,[r4,#0x18]
        0x000018aa:    4603        .F      MOV      r3,r0
        0x000018ac:    4401        .D      ADD      r1,r1,r0
        0x000018ae:    4620         F      MOV      r0,r4
        0x000018b0:    f7ffff7e    ..~.    BL       prvInsertTimerInActiveList ; 0x17b0
        0x000018b4:    b300        ..      CBZ      r0,0x18f8 ; prvProcessReceivedCommands + 136
        0x000018b6:    6a61        aj      LDR      r1,[r4,#0x24]
        0x000018b8:    4620         F      MOV      r0,r4
        0x000018ba:    4788        .G      BLX      r1
        0x000018bc:    69e0        .i      LDR      r0,[r4,#0x1c]
        0x000018be:    2801        .(      CMP      r0,#1
        0x000018c0:    d126        &.      BNE      0x1910 ; prvProcessReceivedCommands + 160
        0x000018c2:    2000        .       MOVS     r0,#0
        0x000018c4:    9000        ..      STR      r0,[sp,#0]
        0x000018c6:    9802        ..      LDR      r0,[sp,#8]
        0x000018c8:    69a1        .i      LDR      r1,[r4,#0x18]
        0x000018ca:    2300        .#      MOVS     r3,#0
        0x000018cc:    1842        B.      ADDS     r2,r0,r1
        0x000018ce:    4619        .F      MOV      r1,r3
        0x000018d0:    4620         F      MOV      r0,r4
        0x000018d2:    f001fa5d    ..].    BL       xTimerGenericCommand ; 0x2d90
        0x000018d6:    b978        x.      CBNZ     r0,0x18f8 ; prvProcessReceivedCommands + 136
        0x000018d8:    2050        P       MOVS     r0,#0x50
        0x000018da:    f3808811    ....    MSR      BASEPRI,r0
        0x000018de:    f3bf8f4f    ..O.    DSB      
        0x000018e2:    f3bf8f6f    ..o.    ISB      
        0x000018e6:    e7fe        ..      B        0x18e6 ; prvProcessReceivedCommands + 118
        0x000018e8:    9802        ..      LDR      r0,[sp,#8]
        0x000018ea:    61a0        .a      STR      r0,[r4,#0x18]
        0x000018ec:    b128        (.      CBZ      r0,0x18fa ; prvProcessReceivedCommands + 138
        0x000018ee:    1881        ..      ADDS     r1,r0,r2
        0x000018f0:    4613        .F      MOV      r3,r2
        0x000018f2:    4620         F      MOV      r0,r4
        0x000018f4:    f7ffff5c    ..\.    BL       prvInsertTimerInActiveList ; 0x17b0
        0x000018f8:    e00a        ..      B        0x1910 ; prvProcessReceivedCommands + 160
        0x000018fa:    2050        P       MOVS     r0,#0x50
        0x000018fc:    f3808811    ....    MSR      BASEPRI,r0
        0x00001900:    f3bf8f4f    ..O.    DSB      
        0x00001904:    f3bf8f6f    ..o.    ISB      
        0x00001908:    e7fe        ..      B        0x1908 ; prvProcessReceivedCommands + 152
        0x0000190a:    4620         F      MOV      r0,r4
        0x0000190c:    f000faae    ....    BL       vPortFree ; 0x1e6c
        0x00001910:    2200        ."      MOVS     r2,#0
        0x00001912:    a901        ..      ADD      r1,sp,#4
        0x00001914:    6828        (h      LDR      r0,[r5,#0]
        0x00001916:    f000ffa9    ....    BL       xQueueReceive ; 0x286c
        0x0000191a:    2800        .(      CMP      r0,#0
        0x0000191c:    d1ac        ..      BNE      0x1878 ; prvProcessReceivedCommands + 8
        0x0000191e:    b005        ..      ADD      sp,sp,#0x14
        0x00001920:    bd30        0.      POP      {r4,r5,pc}
    $d
        0x00001922:    0000        ..      DCW    0
        0x00001924:    20000078    x..     DCD    536871032
    $t
    i.prvProcessTimerOrBlockTask
    prvProcessTimerOrBlockTask
        0x00001928:    e92d41fc    -..A    PUSH     {r2-r8,lr}
        0x0000192c:    460e        .F      MOV      r6,r1
        0x0000192e:    4605        .F      MOV      r5,r0
        0x00001930:    f000fc52    ..R.    BL       vTaskSuspendAll ; 0x21d8
        0x00001934:    a801        ..      ADD      r0,sp,#4
        0x00001936:    f000f861    ..a.    BL       prvSampleTimeNow ; 0x19fc
        0x0000193a:    4604        .F      MOV      r4,r0
        0x0000193c:    9801        ..      LDR      r0,[sp,#4]
        0x0000193e:    b118        ..      CBZ      r0,0x1948 ; prvProcessTimerOrBlockTask + 32
        0x00001940:    f001f9a0    ....    BL       xTaskResumeAll ; 0x2c84
        0x00001944:    e8bd81fc    ....    POP      {r2-r8,pc}
        0x00001948:    4f22        "O      LDR      r7,[pc,#136] ; [0x19d4] = 0x20000078
        0x0000194a:    b1ae        ..      CBZ      r6,0x1978 ; prvProcessTimerOrBlockTask + 80
        0x0000194c:    6938        8i      LDR      r0,[r7,#0x10]
        0x0000194e:    6800        .h      LDR      r0,[r0,#0]
        0x00001950:    b3a8        ..      CBZ      r0,0x19be ; prvProcessTimerOrBlockTask + 150
        0x00001952:    2600        .&      MOVS     r6,#0
        0x00001954:    1b29        ).      SUBS     r1,r5,r4
        0x00001956:    4632        2F      MOV      r2,r6
        0x00001958:    6838        8h      LDR      r0,[r7,#0]
        0x0000195a:    f000fb03    ....    BL       vQueueWaitForMessageRestricted ; 0x1f64
        0x0000195e:    f001f991    ....    BL       xTaskResumeAll ; 0x2c84
        0x00001962:    2800        .(      CMP      r0,#0
        0x00001964:    d1ee        ..      BNE      0x1944 ; prvProcessTimerOrBlockTask + 28
        0x00001966:    491c        .I      LDR      r1,[pc,#112] ; [0x19d8] = 0xe000ed04
        0x00001968:    f04f5080    O..P    MOV      r0,#0x10000000
        0x0000196c:    6008        .`      STR      r0,[r1,#0]
        0x0000196e:    f3bf8f4f    ..O.    DSB      
        0x00001972:    f3bf8f6f    ..o.    ISB      
        0x00001976:    e7e5        ..      B        0x1944 ; prvProcessTimerOrBlockTask + 28
        0x00001978:    42a5        .B      CMP      r5,r4
        0x0000197a:    d8eb        ..      BHI      0x1954 ; prvProcessTimerOrBlockTask + 44
        0x0000197c:    f001f982    ....    BL       xTaskResumeAll ; 0x2c84
        0x00001980:    68f8        .h      LDR      r0,[r7,#0xc]
        0x00001982:    4626        &F      MOV      r6,r4
        0x00001984:    68c0        .h      LDR      r0,[r0,#0xc]
        0x00001986:    68c4        .h      LDR      r4,[r0,#0xc]
        0x00001988:    1d20         .      ADDS     r0,r4,#4
        0x0000198a:    f000f9bd    ....    BL       uxListRemove ; 0x1d08
        0x0000198e:    69e0        .i      LDR      r0,[r4,#0x1c]
        0x00001990:    2801        .(      CMP      r0,#1
        0x00001992:    d110        ..      BNE      0x19b6 ; prvProcessTimerOrBlockTask + 142
        0x00001994:    69a0        .i      LDR      r0,[r4,#0x18]
        0x00001996:    462b        +F      MOV      r3,r5
        0x00001998:    1941        A.      ADDS     r1,r0,r5
        0x0000199a:    4632        2F      MOV      r2,r6
        0x0000199c:    4620         F      MOV      r0,r4
        0x0000199e:    f7ffff07    ....    BL       prvInsertTimerInActiveList ; 0x17b0
        0x000019a2:    b140        @.      CBZ      r0,0x19b6 ; prvProcessTimerOrBlockTask + 142
        0x000019a4:    2000        .       MOVS     r0,#0
        0x000019a6:    4603        .F      MOV      r3,r0
        0x000019a8:    4601        .F      MOV      r1,r0
        0x000019aa:    9000        ..      STR      r0,[sp,#0]
        0x000019ac:    462a        *F      MOV      r2,r5
        0x000019ae:    4620         F      MOV      r0,r4
        0x000019b0:    f001f9ee    ....    BL       xTimerGenericCommand ; 0x2d90
        0x000019b4:    b120         .      CBZ      r0,0x19c0 ; prvProcessTimerOrBlockTask + 152
        0x000019b6:    6a61        aj      LDR      r1,[r4,#0x24]
        0x000019b8:    4620         F      MOV      r0,r4
        0x000019ba:    4788        .G      BLX      r1
        0x000019bc:    e7c2        ..      B        0x1944 ; prvProcessTimerOrBlockTask + 28
        0x000019be:    e007        ..      B        0x19d0 ; prvProcessTimerOrBlockTask + 168
        0x000019c0:    2050        P       MOVS     r0,#0x50
        0x000019c2:    f3808811    ....    MSR      BASEPRI,r0
        0x000019c6:    f3bf8f4f    ..O.    DSB      
        0x000019ca:    f3bf8f6f    ..o.    ISB      
        0x000019ce:    e7fe        ..      B        0x19ce ; prvProcessTimerOrBlockTask + 166
        0x000019d0:    2601        .&      MOVS     r6,#1
        0x000019d2:    e7bf        ..      B        0x1954 ; prvProcessTimerOrBlockTask + 44
    $d
        0x000019d4:    20000078    x..     DCD    536871032
        0x000019d8:    e000ed04    ....    DCD    3758157060
    $t
    i.prvResetNextTaskUnblockTime
    prvResetNextTaskUnblockTime
        0x000019dc:    4806        .H      LDR      r0,[pc,#24] ; [0x19f8] = 0x2000003c
        0x000019de:    6b41        Ak      LDR      r1,[r0,#0x34]
        0x000019e0:    6809        .h      LDR      r1,[r1,#0]
        0x000019e2:    b129        ).      CBZ      r1,0x19f0 ; prvResetNextTaskUnblockTime + 20
        0x000019e4:    6b41        Ak      LDR      r1,[r0,#0x34]
        0x000019e6:    68c9        .h      LDR      r1,[r1,#0xc]
        0x000019e8:    68c9        .h      LDR      r1,[r1,#0xc]
        0x000019ea:    6849        Ih      LDR      r1,[r1,#4]
        0x000019ec:    6281        .b      STR      r1,[r0,#0x28]
        0x000019ee:    4770        pG      BX       lr
        0x000019f0:    f04f31ff    O..1    MOV      r1,#0xffffffff
        0x000019f4:    e7fa        ..      B        0x19ec ; prvResetNextTaskUnblockTime + 16
    $d
        0x000019f6:    0000        ..      DCW    0
        0x000019f8:    2000003c    <..     DCD    536870972
    $t
    i.prvSampleTimeNow
    prvSampleTimeNow
        0x000019fc:    b570        p.      PUSH     {r4-r6,lr}
        0x000019fe:    4605        .F      MOV      r5,r0
        0x00001a00:    f001f84a    ..J.    BL       xTaskGetTickCount ; 0x2a98
        0x00001a04:    4e06        .N      LDR      r6,[pc,#24] ; [0x1a20] = 0x20000078
        0x00001a06:    4604        .F      MOV      r4,r0
        0x00001a08:    68b0        .h      LDR      r0,[r6,#8]
        0x00001a0a:    4284        .B      CMP      r4,r0
        0x00001a0c:    d203        ..      BCS      0x1a16 ; prvSampleTimeNow + 26
        0x00001a0e:    f000f809    ....    BL       prvSwitchTimerLists ; 0x1a24
        0x00001a12:    2001        .       MOVS     r0,#1
        0x00001a14:    e000        ..      B        0x1a18 ; prvSampleTimeNow + 28
        0x00001a16:    2000        .       MOVS     r0,#0
        0x00001a18:    6028        (`      STR      r0,[r5,#0]
        0x00001a1a:    4620         F      MOV      r0,r4
        0x00001a1c:    60b4        .`      STR      r4,[r6,#8]
        0x00001a1e:    bd70        p.      POP      {r4-r6,pc}
    $d
        0x00001a20:    20000078    x..     DCD    536871032
    $t
    i.prvSwitchTimerLists
    prvSwitchTimerLists
        0x00001a24:    b5f8        ..      PUSH     {r3-r7,lr}
        0x00001a26:    4e19        .N      LDR      r6,[pc,#100] ; [0x1a8c] = 0x20000078
        0x00001a28:    e01f        ..      B        0x1a6a ; prvSwitchTimerLists + 70
        0x00001a2a:    68c0        .h      LDR      r0,[r0,#0xc]
        0x00001a2c:    68c4        .h      LDR      r4,[r0,#0xc]
        0x00001a2e:    6805        .h      LDR      r5,[r0,#0]
        0x00001a30:    1d20         .      ADDS     r0,r4,#4
        0x00001a32:    f000f969    ..i.    BL       uxListRemove ; 0x1d08
        0x00001a36:    6a61        aj      LDR      r1,[r4,#0x24]
        0x00001a38:    4620         F      MOV      r0,r4
        0x00001a3a:    4788        .G      BLX      r1
        0x00001a3c:    69e0        .i      LDR      r0,[r4,#0x1c]
        0x00001a3e:    2801        .(      CMP      r0,#1
        0x00001a40:    d113        ..      BNE      0x1a6a ; prvSwitchTimerLists + 70
        0x00001a42:    69a0        .i      LDR      r0,[r4,#0x18]
        0x00001a44:    4428        (D      ADD      r0,r0,r5
        0x00001a46:    42a8        .B      CMP      r0,r5
        0x00001a48:    d906        ..      BLS      0x1a58 ; prvSwitchTimerLists + 52
        0x00001a4a:    6124        $a      STR      r4,[r4,#0x10]
        0x00001a4c:    6060        ``      STR      r0,[r4,#4]
        0x00001a4e:    1d21        !.      ADDS     r1,r4,#4
        0x00001a50:    68f0        .h      LDR      r0,[r6,#0xc]
        0x00001a52:    f000f9b3    ....    BL       vListInsert ; 0x1dbc
        0x00001a56:    e008        ..      B        0x1a6a ; prvSwitchTimerLists + 70
        0x00001a58:    2000        .       MOVS     r0,#0
        0x00001a5a:    4603        .F      MOV      r3,r0
        0x00001a5c:    4601        .F      MOV      r1,r0
        0x00001a5e:    9000        ..      STR      r0,[sp,#0]
        0x00001a60:    462a        *F      MOV      r2,r5
        0x00001a62:    4620         F      MOV      r0,r4
        0x00001a64:    f001f994    ....    BL       xTimerGenericCommand ; 0x2d90
        0x00001a68:    b138        8.      CBZ      r0,0x1a7a ; prvSwitchTimerLists + 86
        0x00001a6a:    68f0        .h      LDR      r0,[r6,#0xc]
        0x00001a6c:    6801        .h      LDR      r1,[r0,#0]
        0x00001a6e:    2900        .)      CMP      r1,#0
        0x00001a70:    d1db        ..      BNE      0x1a2a ; prvSwitchTimerLists + 6
        0x00001a72:    6931        1i      LDR      r1,[r6,#0x10]
        0x00001a74:    e9c61003    ....    STRD     r1,r0,[r6,#0xc]
        0x00001a78:    bdf8        ..      POP      {r3-r7,pc}
        0x00001a7a:    2050        P       MOVS     r0,#0x50
        0x00001a7c:    f3808811    ....    MSR      BASEPRI,r0
        0x00001a80:    f3bf8f4f    ..O.    DSB      
        0x00001a84:    f3bf8f6f    ..o.    ISB      
        0x00001a88:    e7fe        ..      B        0x1a88 ; prvSwitchTimerLists + 100
    $d
        0x00001a8a:    0000        ..      DCW    0
        0x00001a8c:    20000078    x..     DCD    536871032
    $t
    i.prvTaskExitError
    prvTaskExitError
        0x00001a90:    4808        .H      LDR      r0,[pc,#32] ; [0x1ab4] = 0x2000008c
        0x00001a92:    6840        @h      LDR      r0,[r0,#4]
        0x00001a94:    1c40        @.      ADDS     r0,r0,#1
        0x00001a96:    f04f0050    O.P.    MOV      r0,#0x50
        0x00001a9a:    f3808811    ....    MSR      BASEPRI,r0
        0x00001a9e:    d004        ..      BEQ      0x1aaa ; prvTaskExitError + 26
        0x00001aa0:    f3bf8f4f    ..O.    DSB      
        0x00001aa4:    f3bf8f6f    ..o.    ISB      
        0x00001aa8:    e7fe        ..      B        0x1aa8 ; prvTaskExitError + 24
        0x00001aaa:    f3bf8f4f    ..O.    DSB      
        0x00001aae:    f3bf8f6f    ..o.    ISB      
        0x00001ab2:    e7fe        ..      B        0x1ab2 ; prvTaskExitError + 34
    $d
        0x00001ab4:    2000008c    ...     DCD    536871052
    $t
    i.prvTimerTask
    prvTimerTask
        0x00001ab8:    4c08        .L      LDR      r4,[pc,#32] ; [0x1adc] = 0x20000078
        0x00001aba:    68e0        .h      LDR      r0,[r4,#0xc]
        0x00001abc:    6801        .h      LDR      r1,[r0,#0]
        0x00001abe:    b139        9.      CBZ      r1,0x1ad0 ; prvTimerTask + 24
        0x00001ac0:    2100        .!      MOVS     r1,#0
        0x00001ac2:    b139        9.      CBZ      r1,0x1ad4 ; prvTimerTask + 28
        0x00001ac4:    2000        .       MOVS     r0,#0
        0x00001ac6:    f7ffff2f    ../.    BL       prvProcessTimerOrBlockTask ; 0x1928
        0x00001aca:    f7fffed1    ....    BL       prvProcessReceivedCommands ; 0x1870
        0x00001ace:    e7f4        ..      B        0x1aba ; prvTimerTask + 2
        0x00001ad0:    2101        .!      MOVS     r1,#1
        0x00001ad2:    e7f6        ..      B        0x1ac2 ; prvTimerTask + 10
        0x00001ad4:    68c0        .h      LDR      r0,[r0,#0xc]
        0x00001ad6:    6800        .h      LDR      r0,[r0,#0]
        0x00001ad8:    e7f5        ..      B        0x1ac6 ; prvTimerTask + 14
    $d
        0x00001ada:    0000        ..      DCW    0
        0x00001adc:    20000078    x..     DCD    536871032
    $t
    i.prvUnlockQueue
    prvUnlockQueue
        0x00001ae0:    e92d41f0    -..A    PUSH     {r4-r8,lr}
        0x00001ae4:    4604        .F      MOV      r4,r0
        0x00001ae6:    f000f98d    ....    BL       vPortEnterCritical ; 0x1e04
        0x00001aea:    f9945045    ..EP    LDRSB    r5,[r4,#0x45]
        0x00001aee:    f1040624    ..$.    ADD      r6,r4,#0x24
        0x00001af2:    e010        ..      B        0x1b16 ; prvUnlockQueue + 54
        0x00001af4:    6ca0        .l      LDR      r0,[r4,#0x48]
        0x00001af6:    b120         .      CBZ      r0,0x1b02 ; prvUnlockQueue + 34
        0x00001af8:    2100        .!      MOVS     r1,#0
        0x00001afa:    4620         F      MOV      r0,r4
        0x00001afc:    f7fffe81    ....    BL       prvNotifyQueueSetContainer ; 0x1802
        0x00001b00:    e004        ..      B        0x1b0c ; prvUnlockQueue + 44
        0x00001b02:    6a60        `j      LDR      r0,[r4,#0x24]
        0x00001b04:    b148        H.      CBZ      r0,0x1b1a ; prvUnlockQueue + 58
        0x00001b06:    4630        0F      MOV      r0,r6
        0x00001b08:    f001f882    ....    BL       xTaskRemoveFromEventList ; 0x2c10
        0x00001b0c:    b108        ..      CBZ      r0,0x1b12 ; prvUnlockQueue + 50
        0x00001b0e:    f000faf1    ....    BL       vTaskMissedYield ; 0x20f4
        0x00001b12:    1e6d        m.      SUBS     r5,r5,#1
        0x00001b14:    b26d        m.      SXTB     r5,r5
        0x00001b16:    2d00        .-      CMP      r5,#0
        0x00001b18:    dcec        ..      BGT      0x1af4 ; prvUnlockQueue + 20
        0x00001b1a:    f04f36ff    O..6    MOV      r6,#0xffffffff
        0x00001b1e:    f8846045    ..E`    STRB     r6,[r4,#0x45]
        0x00001b22:    f000f98f    ....    BL       vPortExitCritical ; 0x1e44
        0x00001b26:    f000f96d    ..m.    BL       vPortEnterCritical ; 0x1e04
        0x00001b2a:    f9945044    ..DP    LDRSB    r5,[r4,#0x44]
        0x00001b2e:    f1040710    ....    ADD      r7,r4,#0x10
        0x00001b32:    e009        ..      B        0x1b48 ; prvUnlockQueue + 104
        0x00001b34:    6920         i      LDR      r0,[r4,#0x10]
        0x00001b36:    b148        H.      CBZ      r0,0x1b4c ; prvUnlockQueue + 108
        0x00001b38:    4638        8F      MOV      r0,r7
        0x00001b3a:    f001f869    ..i.    BL       xTaskRemoveFromEventList ; 0x2c10
        0x00001b3e:    b108        ..      CBZ      r0,0x1b44 ; prvUnlockQueue + 100
        0x00001b40:    f000fad8    ....    BL       vTaskMissedYield ; 0x20f4
        0x00001b44:    1e6d        m.      SUBS     r5,r5,#1
        0x00001b46:    b26d        m.      SXTB     r5,r5
        0x00001b48:    2d00        .-      CMP      r5,#0
        0x00001b4a:    dcf3        ..      BGT      0x1b34 ; prvUnlockQueue + 84
        0x00001b4c:    f8846044    ..D`    STRB     r6,[r4,#0x44]
        0x00001b50:    e8bd41f0    ...A    POP      {r4-r8,lr}
        0x00001b54:    f000b976    ..v.    B.W      vPortExitCritical ; 0x1e44
    i.pvPortMalloc
    pvPortMalloc
        0x00001b58:    e92d41f0    -..A    PUSH     {r4-r8,lr}
        0x00001b5c:    4605        .F      MOV      r5,r0
        0x00001b5e:    2600        .&      MOVS     r6,#0
        0x00001b60:    f000fb3a    ..:.    BL       vTaskSuspendAll ; 0x21d8
        0x00001b64:    4f32        2O      LDR      r7,[pc,#200] ; [0x1c30] = 0x20000098
        0x00001b66:    6838        8h      LDR      r0,[r7,#0]
        0x00001b68:    b908        ..      CBNZ     r0,0x1b6e ; pvPortMalloc + 22
        0x00001b6a:    f7fffd57    ..W.    BL       prvHeapInit ; 0x161c
        0x00001b6e:    68f8        .h      LDR      r0,[r7,#0xc]
        0x00001b70:    4205        .B      TST      r5,r0
        0x00001b72:    d14b        K.      BNE      0x1c0c ; pvPortMalloc + 180
        0x00001b74:    b3c5        ..      CBZ      r5,0x1be8 ; pvPortMalloc + 144
        0x00001b76:    3508        .5      ADDS     r5,r5,#8
        0x00001b78:    0768        h.      LSLS     r0,r5,#29
        0x00001b7a:    d00e        ..      BEQ      0x1b9a ; pvPortMalloc + 66
        0x00001b7c:    f0050007    ....    AND      r0,r5,#7
        0x00001b80:    f1c00008    ....    RSB      r0,r0,#8
        0x00001b84:    4405        .D      ADD      r5,r5,r0
        0x00001b86:    0768        h.      LSLS     r0,r5,#29
        0x00001b88:    d007        ..      BEQ      0x1b9a ; pvPortMalloc + 66
        0x00001b8a:    2050        P       MOVS     r0,#0x50
        0x00001b8c:    f3808811    ....    MSR      BASEPRI,r0
        0x00001b90:    f3bf8f4f    ..O.    DSB      
        0x00001b94:    f3bf8f6f    ..o.    ISB      
        0x00001b98:    e7fe        ..      B        0x1b98 ; pvPortMalloc + 64
        0x00001b9a:    b32d        -.      CBZ      r5,0x1be8 ; pvPortMalloc + 144
        0x00001b9c:    6878        xh      LDR      r0,[r7,#4]
        0x00001b9e:    4285        .B      CMP      r5,r0
        0x00001ba0:    d834        4.      BHI      0x1c0c ; pvPortMalloc + 180
        0x00001ba2:    4923        #I      LDR      r1,[pc,#140] ; [0x1c30] = 0x20000098
        0x00001ba4:    3110        .1      ADDS     r1,r1,#0x10
        0x00001ba6:    4608        .F      MOV      r0,r1
        0x00001ba8:    6804        .h      LDR      r4,[r0,#0]
        0x00001baa:    e001        ..      B        0x1bb0 ; pvPortMalloc + 88
        0x00001bac:    4621        !F      MOV      r1,r4
        0x00001bae:    4604        .F      MOV      r4,r0
        0x00001bb0:    6860        `h      LDR      r0,[r4,#4]
        0x00001bb2:    42a8        .B      CMP      r0,r5
        0x00001bb4:    d202        ..      BCS      0x1bbc ; pvPortMalloc + 100
        0x00001bb6:    6820         h      LDR      r0,[r4,#0]
        0x00001bb8:    2800        .(      CMP      r0,#0
        0x00001bba:    d1f7        ..      BNE      0x1bac ; pvPortMalloc + 84
        0x00001bbc:    6838        8h      LDR      r0,[r7,#0]
        0x00001bbe:    4284        .B      CMP      r4,r0
        0x00001bc0:    d024        $.      BEQ      0x1c0c ; pvPortMalloc + 180
        0x00001bc2:    680e        .h      LDR      r6,[r1,#0]
        0x00001bc4:    6820         h      LDR      r0,[r4,#0]
        0x00001bc6:    6008        .`      STR      r0,[r1,#0]
        0x00001bc8:    6860        `h      LDR      r0,[r4,#4]
        0x00001bca:    3608        .6      ADDS     r6,r6,#8
        0x00001bcc:    1b41        A.      SUBS     r1,r0,r5
        0x00001bce:    2910        .)      CMP      r1,#0x10
        0x00001bd0:    d90f        ..      BLS      0x1bf2 ; pvPortMalloc + 154
        0x00001bd2:    1960        `.      ADDS     r0,r4,r5
        0x00001bd4:    0742        B.      LSLS     r2,r0,#29
        0x00001bd6:    d008        ..      BEQ      0x1bea ; pvPortMalloc + 146
        0x00001bd8:    2050        P       MOVS     r0,#0x50
        0x00001bda:    f3808811    ....    MSR      BASEPRI,r0
        0x00001bde:    f3bf8f4f    ..O.    DSB      
        0x00001be2:    f3bf8f6f    ..o.    ISB      
        0x00001be6:    e7fe        ..      B        0x1be6 ; pvPortMalloc + 142
        0x00001be8:    e010        ..      B        0x1c0c ; pvPortMalloc + 180
        0x00001bea:    6041        A`      STR      r1,[r0,#4]
        0x00001bec:    6065        e`      STR      r5,[r4,#4]
        0x00001bee:    f7fffdb9    ....    BL       prvInsertBlockIntoFreeList ; 0x1764
        0x00001bf2:    6861        ah      LDR      r1,[r4,#4]
        0x00001bf4:    6878        xh      LDR      r0,[r7,#4]
        0x00001bf6:    1a40        @.      SUBS     r0,r0,r1
        0x00001bf8:    6078        x`      STR      r0,[r7,#4]
        0x00001bfa:    68ba        .h      LDR      r2,[r7,#8]
        0x00001bfc:    4290        .B      CMP      r0,r2
        0x00001bfe:    d200        ..      BCS      0x1c02 ; pvPortMalloc + 170
        0x00001c00:    60b8        .`      STR      r0,[r7,#8]
        0x00001c02:    68f8        .h      LDR      r0,[r7,#0xc]
        0x00001c04:    4301        .C      ORRS     r1,r1,r0
        0x00001c06:    2000        .       MOVS     r0,#0
        0x00001c08:    e9c40100    ....    STRD     r0,r1,[r4,#0]
        0x00001c0c:    f001f83a    ..:.    BL       xTaskResumeAll ; 0x2c84
        0x00001c10:    b90e        ..      CBNZ     r6,0x1c16 ; pvPortMalloc + 190
        0x00001c12:    f000f899    ....    BL       vApplicationMallocFailedHook ; 0x1d48
        0x00001c16:    0770        p.      LSLS     r0,r6,#29
        0x00001c18:    d007        ..      BEQ      0x1c2a ; pvPortMalloc + 210
        0x00001c1a:    2050        P       MOVS     r0,#0x50
        0x00001c1c:    f3808811    ....    MSR      BASEPRI,r0
        0x00001c20:    f3bf8f4f    ..O.    DSB      
        0x00001c24:    f3bf8f6f    ..o.    ISB      
        0x00001c28:    e7fe        ..      B        0x1c28 ; pvPortMalloc + 208
        0x00001c2a:    4630        0F      MOV      r0,r6
        0x00001c2c:    e8bd81f0    ....    POP      {r4-r8,pc}
    $d
        0x00001c30:    20000098    ...     DCD    536871064
    $t
    i.pxPortInitialiseStack
    pxPortInitialiseStack
        0x00001c34:    b510        ..      PUSH     {r4,lr}
        0x00001c36:    1f03        ..      SUBS     r3,r0,#4
        0x00001c38:    f04f7480    O..t    MOV      r4,#0x1000000
        0x00001c3c:    601c        .`      STR      r4,[r3,#0]
        0x00001c3e:    1f1b        ..      SUBS     r3,r3,#4
        0x00001c40:    f0210101    !...    BIC      r1,r1,#1
        0x00001c44:    6019        .`      STR      r1,[r3,#0]
        0x00001c46:    1f19        ..      SUBS     r1,r3,#4
        0x00001c48:    4b04        .K      LDR      r3,[pc,#16] ; [0x1c5c] = 0x1a91
        0x00001c4a:    600b        .`      STR      r3,[r1,#0]
        0x00001c4c:    3914        .9      SUBS     r1,r1,#0x14
        0x00001c4e:    600a        .`      STR      r2,[r1,#0]
        0x00001c50:    1f09        ..      SUBS     r1,r1,#4
        0x00001c52:    f06f0202    o...    MVN      r2,#2
        0x00001c56:    3844        D8      SUBS     r0,r0,#0x44
        0x00001c58:    600a        .`      STR      r2,[r1,#0]
        0x00001c5a:    bd10        ..      POP      {r4,pc}
    $d
        0x00001c5c:    00001a91    ....    DCD    6801
    $t
    i.stackDump
    stackDump
        0x00001c60:    b510        ..      PUSH     {r4,lr}
        0x00001c62:    4604        .F      MOV      r4,r0
        0x00001c64:    6801        .h      LDR      r1,[r0,#0]
        0x00001c66:    a010        ..      ADR      r0,{pc}+0x42 ; 0x1ca8
        0x00001c68:    f7fff87c    ..|.    BL       __0printf$8 ; 0xd64
        0x00001c6c:    a011        ..      ADR      r0,{pc}+0x48 ; 0x1cb4
        0x00001c6e:    6861        ah      LDR      r1,[r4,#4]
        0x00001c70:    f7fff878    ..x.    BL       __0printf$8 ; 0xd64
        0x00001c74:    a012        ..      ADR      r0,{pc}+0x4c ; 0x1cc0
        0x00001c76:    68a1        .h      LDR      r1,[r4,#8]
        0x00001c78:    f7fff874    ..t.    BL       __0printf$8 ; 0xd64
        0x00001c7c:    a013        ..      ADR      r0,{pc}+0x50 ; 0x1ccc
        0x00001c7e:    68e1        .h      LDR      r1,[r4,#0xc]
        0x00001c80:    f7fff870    ..p.    BL       __0printf$8 ; 0xd64
        0x00001c84:    a014        ..      ADR      r0,{pc}+0x54 ; 0x1cd8
        0x00001c86:    6921        !i      LDR      r1,[r4,#0x10]
        0x00001c88:    f7fff86c    ..l.    BL       __0printf$8 ; 0xd64
        0x00001c8c:    a015        ..      ADR      r0,{pc}+0x58 ; 0x1ce4
        0x00001c8e:    6961        ai      LDR      r1,[r4,#0x14]
        0x00001c90:    f7fff868    ..h.    BL       __0printf$8 ; 0xd64
        0x00001c94:    a016        ..      ADR      r0,{pc}+0x5c ; 0x1cf0
        0x00001c96:    69a1        .i      LDR      r1,[r4,#0x18]
        0x00001c98:    f7fff864    ..d.    BL       __0printf$8 ; 0xd64
        0x00001c9c:    69e1        .i      LDR      r1,[r4,#0x1c]
        0x00001c9e:    e8bd4010    ...@    POP      {r4,lr}
        0x00001ca2:    a016        ..      ADR      r0,{pc}+0x5a ; 0x1cfc
        0x00001ca4:    f7ffb85e    ..^.    B        __0printf$8 ; 0xd64
    $d
        0x00001ca8:    20203072    r0      DCD    538980466
        0x00001cac:    7830203d    = 0x    DCD    2016419901
        0x00001cb0:    000a7825    %x..    DCD    686117
        0x00001cb4:    20203172    r1      DCD    538980722
        0x00001cb8:    7830203d    = 0x    DCD    2016419901
        0x00001cbc:    000a7825    %x..    DCD    686117
        0x00001cc0:    20203272    r2      DCD    538980978
        0x00001cc4:    7830203d    = 0x    DCD    2016419901
        0x00001cc8:    000a7825    %x..    DCD    686117
        0x00001ccc:    20203372    r3      DCD    538981234
        0x00001cd0:    7830203d    = 0x    DCD    2016419901
        0x00001cd4:    000a7825    %x..    DCD    686117
        0x00001cd8:    20323172    r12     DCD    540160370
        0x00001cdc:    7830203d    = 0x    DCD    2016419901
        0x00001ce0:    000a7825    %x..    DCD    686117
        0x00001ce4:    2020726c    lr      DCD    538997356
        0x00001ce8:    7830203d    = 0x    DCD    2016419901
        0x00001cec:    000a7825    %x..    DCD    686117
        0x00001cf0:    20206370    pc      DCD    538993520
        0x00001cf4:    7830203d    = 0x    DCD    2016419901
        0x00001cf8:    000a7825    %x..    DCD    686117
        0x00001cfc:    20727370    psr     DCD    544371568
        0x00001d00:    7830203d    = 0x    DCD    2016419901
        0x00001d04:    000a7825    %x..    DCD    686117
    $t
    i.uxListRemove
    uxListRemove
        0x00001d08:    e9d03201    ...2    LDRD     r3,r2,[r0,#4]
        0x00001d0c:    6901        .i      LDR      r1,[r0,#0x10]
        0x00001d0e:    609a        .`      STR      r2,[r3,#8]
        0x00001d10:    e9d02301    ...#    LDRD     r2,r3,[r0,#4]
        0x00001d14:    605a        Z`      STR      r2,[r3,#4]
        0x00001d16:    684a        Jh      LDR      r2,[r1,#4]
        0x00001d18:    4282        .B      CMP      r2,r0
        0x00001d1a:    d101        ..      BNE      0x1d20 ; uxListRemove + 24
        0x00001d1c:    6882        .h      LDR      r2,[r0,#8]
        0x00001d1e:    604a        J`      STR      r2,[r1,#4]
        0x00001d20:    2200        ."      MOVS     r2,#0
        0x00001d22:    6102        .a      STR      r2,[r0,#0x10]
        0x00001d24:    6808        .h      LDR      r0,[r1,#0]
        0x00001d26:    1e40        @.      SUBS     r0,r0,#1
        0x00001d28:    6008        .`      STR      r0,[r1,#0]
        0x00001d2a:    6808        .h      LDR      r0,[r1,#0]
        0x00001d2c:    4770        pG      BX       lr
        0x00001d2e:    0000        ..      MOVS     r0,r0
    i.vApplicationIdleHook
    vApplicationIdleHook
        0x00001d30:    b510        ..      PUSH     {r4,lr}
        0x00001d32:    4c04        .L      LDR      r4,[pc,#16] ; [0x1d44] = 0x200000b0
        0x00001d34:    6820         h      LDR      r0,[r4,#0]
        0x00001d36:    2800        .(      CMP      r0,#0
        0x00001d38:    d102        ..      BNE      0x1d40 ; vApplicationIdleHook + 16
        0x00001d3a:    f000fe99    ....    BL       xTaskGetCurrentTaskHandle ; 0x2a70
        0x00001d3e:    6020         `      STR      r0,[r4,#0]
        0x00001d40:    bd10        ..      POP      {r4,pc}
    $d
        0x00001d42:    0000        ..      DCW    0
        0x00001d44:    200000b0    ...     DCD    536871088
    $t
    i.vApplicationMallocFailedHook
    vApplicationMallocFailedHook
        0x00001d48:    2050        P       MOVS     r0,#0x50
        0x00001d4a:    f3808811    ....    MSR      BASEPRI,r0
        0x00001d4e:    f3bf8f4f    ..O.    DSB      
        0x00001d52:    f3bf8f6f    ..o.    ISB      
        0x00001d56:    e7fe        ..      B        0x1d56 ; vApplicationMallocFailedHook + 14
    i.vApplicationStackOverflowHook
    vApplicationStackOverflowHook
        0x00001d58:    2050        P       MOVS     r0,#0x50
        0x00001d5a:    f3808811    ....    MSR      BASEPRI,r0
        0x00001d5e:    f3bf8f4f    ..O.    DSB      
        0x00001d62:    f3bf8f6f    ..o.    ISB      
        0x00001d66:    e7fe        ..      B        0x1d66 ; vApplicationStackOverflowHook + 14
    i.vApplicationTickHook
    vApplicationTickHook
        0x00001d68:    490c        .I      LDR      r1,[pc,#48] ; [0x1d9c] = 0x200000b0
        0x00001d6a:    b510        ..      PUSH     {r4,lr}
        0x00001d6c:    6948        Hi      LDR      r0,[r1,#0x14]
        0x00001d6e:    1c42        B.      ADDS     r2,r0,#1
        0x00001d70:    614a        Ja      STR      r2,[r1,#0x14]
        0x00001d72:    f44f727a    O.zr    MOV      r2,#0x3e8
        0x00001d76:    4290        .B      CMP      r0,r2
        0x00001d78:    dd0e        ..      BLE      0x1d98 ; vApplicationTickHook + 48
        0x00001d7a:    2000        .       MOVS     r0,#0
        0x00001d7c:    6148        Ha      STR      r0,[r1,#0x14]
        0x00001d7e:    690b        .i      LDR      r3,[r1,#0x10]
        0x00001d80:    4293        .B      CMP      r3,r2
        0x00001d82:    d900        ..      BLS      0x1d86 ; vApplicationTickHook + 30
        0x00001d84:    610a        .a      STR      r2,[r1,#0x10]
        0x00001d86:    690b        .i      LDR      r3,[r1,#0x10]
        0x00001d88:    2464        d$      MOVS     r4,#0x64
        0x00001d8a:    4363        cC      MULS     r3,r4,r3
        0x00001d8c:    fbb3f2f2    ....    UDIV     r2,r3,r2
        0x00001d90:    f1c20264    ..d.    RSB      r2,r2,#0x64
        0x00001d94:    604a        J`      STR      r2,[r1,#4]
        0x00001d96:    6108        .a      STR      r0,[r1,#0x10]
        0x00001d98:    bd10        ..      POP      {r4,pc}
    $d
        0x00001d9a:    0000        ..      DCW    0
        0x00001d9c:    200000b0    ...     DCD    536871088
    $t
    i.vListInitialise
    vListInitialise
        0x00001da0:    f1000108    ....    ADD      r1,r0,#8
        0x00001da4:    f04f32ff    O..2    MOV      r2,#0xffffffff
        0x00001da8:    e9c01201    ....    STRD     r1,r2,[r0,#4]
        0x00001dac:    60c1        .`      STR      r1,[r0,#0xc]
        0x00001dae:    6101        .a      STR      r1,[r0,#0x10]
        0x00001db0:    2100        .!      MOVS     r1,#0
        0x00001db2:    6001        .`      STR      r1,[r0,#0]
        0x00001db4:    4770        pG      BX       lr
    i.vListInitialiseItem
    vListInitialiseItem
        0x00001db6:    2100        .!      MOVS     r1,#0
        0x00001db8:    6101        .a      STR      r1,[r0,#0x10]
        0x00001dba:    4770        pG      BX       lr
    i.vListInsert
    vListInsert
        0x00001dbc:    b530        0.      PUSH     {r4,r5,lr}
        0x00001dbe:    680c        .h      LDR      r4,[r1,#0]
        0x00001dc0:    1c62        b.      ADDS     r2,r4,#1
        0x00001dc2:    d002        ..      BEQ      0x1dca ; vListInsert + 14
        0x00001dc4:    f1000208    ....    ADD      r2,r0,#8
        0x00001dc8:    e002        ..      B        0x1dd0 ; vListInsert + 20
        0x00001dca:    6902        .i      LDR      r2,[r0,#0x10]
        0x00001dcc:    e004        ..      B        0x1dd8 ; vListInsert + 28
        0x00001dce:    461a        .F      MOV      r2,r3
        0x00001dd0:    6853        Sh      LDR      r3,[r2,#4]
        0x00001dd2:    681d        .h      LDR      r5,[r3,#0]
        0x00001dd4:    42a5        .B      CMP      r5,r4
        0x00001dd6:    d9fa        ..      BLS      0x1dce ; vListInsert + 18
        0x00001dd8:    6853        Sh      LDR      r3,[r2,#4]
        0x00001dda:    604b        K`      STR      r3,[r1,#4]
        0x00001ddc:    6099        .`      STR      r1,[r3,#8]
        0x00001dde:    608a        .`      STR      r2,[r1,#8]
        0x00001de0:    6051        Q`      STR      r1,[r2,#4]
        0x00001de2:    6108        .a      STR      r0,[r1,#0x10]
        0x00001de4:    6801        .h      LDR      r1,[r0,#0]
        0x00001de6:    1c49        I.      ADDS     r1,r1,#1
        0x00001de8:    6001        .`      STR      r1,[r0,#0]
        0x00001dea:    bd30        0.      POP      {r4,r5,pc}
    i.vListInsertEnd
    vListInsertEnd
        0x00001dec:    6842        Bh      LDR      r2,[r0,#4]
        0x00001dee:    604a        J`      STR      r2,[r1,#4]
        0x00001df0:    6893        .h      LDR      r3,[r2,#8]
        0x00001df2:    608b        .`      STR      r3,[r1,#8]
        0x00001df4:    6893        .h      LDR      r3,[r2,#8]
        0x00001df6:    6059        Y`      STR      r1,[r3,#4]
        0x00001df8:    6091        .`      STR      r1,[r2,#8]
        0x00001dfa:    6108        .a      STR      r0,[r1,#0x10]
        0x00001dfc:    6801        .h      LDR      r1,[r0,#0]
        0x00001dfe:    1c49        I.      ADDS     r1,r1,#1
        0x00001e00:    6001        .`      STR      r1,[r0,#0]
        0x00001e02:    4770        pG      BX       lr
    i.vPortEnterCritical
    vPortEnterCritical
        0x00001e04:    2050        P       MOVS     r0,#0x50
        0x00001e06:    f3808811    ....    MSR      BASEPRI,r0
        0x00001e0a:    f3bf8f4f    ..O.    DSB      
        0x00001e0e:    f3bf8f6f    ..o.    ISB      
        0x00001e12:    490a        .I      LDR      r1,[pc,#40] ; [0x1e3c] = 0x2000008c
        0x00001e14:    6848        Hh      LDR      r0,[r1,#4]
        0x00001e16:    1c40        @.      ADDS     r0,r0,#1
        0x00001e18:    6048        H`      STR      r0,[r1,#4]
        0x00001e1a:    2801        .(      CMP      r0,#1
        0x00001e1c:    d10c        ..      BNE      0x1e38 ; vPortEnterCritical + 52
        0x00001e1e:    4808        .H      LDR      r0,[pc,#32] ; [0x1e40] = 0xe000ed04
        0x00001e20:    6800        .h      LDR      r0,[r0,#0]
        0x00001e22:    f0100fff    ....    TST      r0,#0xff
        0x00001e26:    d007        ..      BEQ      0x1e38 ; vPortEnterCritical + 52
        0x00001e28:    2050        P       MOVS     r0,#0x50
        0x00001e2a:    f3808811    ....    MSR      BASEPRI,r0
        0x00001e2e:    f3bf8f4f    ..O.    DSB      
        0x00001e32:    f3bf8f6f    ..o.    ISB      
        0x00001e36:    e7fe        ..      B        0x1e36 ; vPortEnterCritical + 50
        0x00001e38:    4770        pG      BX       lr
    $d
        0x00001e3a:    0000        ..      DCW    0
        0x00001e3c:    2000008c    ...     DCD    536871052
        0x00001e40:    e000ed04    ....    DCD    3758157060
    $t
    i.vPortExitCritical
    vPortExitCritical
        0x00001e44:    4908        .I      LDR      r1,[pc,#32] ; [0x1e68] = 0x2000008c
        0x00001e46:    6848        Hh      LDR      r0,[r1,#4]
        0x00001e48:    b128        (.      CBZ      r0,0x1e56 ; vPortExitCritical + 18
        0x00001e4a:    1e40        @.      SUBS     r0,r0,#1
        0x00001e4c:    6048        H`      STR      r0,[r1,#4]
        0x00001e4e:    d101        ..      BNE      0x1e54 ; vPortExitCritical + 16
        0x00001e50:    f3808811    ....    MSR      BASEPRI,r0
        0x00001e54:    4770        pG      BX       lr
        0x00001e56:    2050        P       MOVS     r0,#0x50
        0x00001e58:    f3808811    ....    MSR      BASEPRI,r0
        0x00001e5c:    f3bf8f4f    ..O.    DSB      
        0x00001e60:    f3bf8f6f    ..o.    ISB      
        0x00001e64:    e7fe        ..      B        0x1e64 ; vPortExitCritical + 32
    $d
        0x00001e66:    0000        ..      DCW    0
        0x00001e68:    2000008c    ...     DCD    536871052
    $t
    i.vPortFree
    vPortFree
        0x00001e6c:    b570        p.      PUSH     {r4-r6,lr}
        0x00001e6e:    2800        .(      CMP      r0,#0
        0x00001e70:    d027        '.      BEQ      0x1ec2 ; vPortFree + 86
        0x00001e72:    4d14        .M      LDR      r5,[pc,#80] ; [0x1ec4] = 0x20000098
        0x00001e74:    f1a00408    ....    SUB      r4,r0,#8
        0x00001e78:    6860        `h      LDR      r0,[r4,#4]
        0x00001e7a:    68e9        .h      LDR      r1,[r5,#0xc]
        0x00001e7c:    4208        .B      TST      r0,r1
        0x00001e7e:    d107        ..      BNE      0x1e90 ; vPortFree + 36
        0x00001e80:    2050        P       MOVS     r0,#0x50
        0x00001e82:    f3808811    ....    MSR      BASEPRI,r0
        0x00001e86:    f3bf8f4f    ..O.    DSB      
        0x00001e8a:    f3bf8f6f    ..o.    ISB      
        0x00001e8e:    e7fe        ..      B        0x1e8e ; vPortFree + 34
        0x00001e90:    6822        "h      LDR      r2,[r4,#0]
        0x00001e92:    b13a        :.      CBZ      r2,0x1ea4 ; vPortFree + 56
        0x00001e94:    2050        P       MOVS     r0,#0x50
        0x00001e96:    f3808811    ....    MSR      BASEPRI,r0
        0x00001e9a:    f3bf8f4f    ..O.    DSB      
        0x00001e9e:    f3bf8f6f    ..o.    ISB      
        0x00001ea2:    e7fe        ..      B        0x1ea2 ; vPortFree + 54
        0x00001ea4:    4388        .C      BICS     r0,r0,r1
        0x00001ea6:    6060        ``      STR      r0,[r4,#4]
        0x00001ea8:    f000f996    ....    BL       vTaskSuspendAll ; 0x21d8
        0x00001eac:    6860        `h      LDR      r0,[r4,#4]
        0x00001eae:    6869        ih      LDR      r1,[r5,#4]
        0x00001eb0:    4408        .D      ADD      r0,r0,r1
        0x00001eb2:    6068        h`      STR      r0,[r5,#4]
        0x00001eb4:    4620         F      MOV      r0,r4
        0x00001eb6:    f7fffc55    ..U.    BL       prvInsertBlockIntoFreeList ; 0x1764
        0x00001eba:    e8bd4070    ..p@    POP      {r4-r6,lr}
        0x00001ebe:    f000bee1    ....    B.W      xTaskResumeAll ; 0x2c84
        0x00001ec2:    bd70        p.      POP      {r4-r6,pc}
    $d
        0x00001ec4:    20000098    ...     DCD    536871064
    $t
    i.vPortSetupTimerInterrupt
    vPortSetupTimerInterrupt
        0x00001ec8:    f04f20e0    O..     MOV      r0,#0xe000e000
        0x00001ecc:    2100        .!      MOVS     r1,#0
        0x00001ece:    6101        .a      STR      r1,[r0,#0x10]
        0x00001ed0:    6181        .a      STR      r1,[r0,#0x18]
        0x00001ed2:    4905        .I      LDR      r1,[pc,#20] ; [0x1ee8] = 0x20000000
        0x00001ed4:    f44f727a    O.zr    MOV      r2,#0x3e8
        0x00001ed8:    6809        .h      LDR      r1,[r1,#0]
        0x00001eda:    fbb1f1f2    ....    UDIV     r1,r1,r2
        0x00001ede:    1e49        I.      SUBS     r1,r1,#1
        0x00001ee0:    6141        Aa      STR      r1,[r0,#0x14]
        0x00001ee2:    2107        .!      MOVS     r1,#7
        0x00001ee4:    6101        .a      STR      r1,[r0,#0x10]
        0x00001ee6:    4770        pG      BX       lr
    $d
        0x00001ee8:    20000000    ...     DCD    536870912
    $t
    i.vPortValidateInterruptPriority
    vPortValidateInterruptPriority
        0x00001eec:    b510        ..      PUSH     {r4,lr}
        0x00001eee:    f7fef9f5    ....    BL       vPortGetIPSR ; 0x2dc
        0x00001ef2:    4911        .I      LDR      r1,[pc,#68] ; [0x1f38] = 0x2000008c
        0x00001ef4:    2810        .(      CMP      r0,#0x10
        0x00001ef6:    d30e        ..      BCC      0x1f16 ; vPortValidateInterruptPriority + 42
        0x00001ef8:    f10020e0    ...     ADD      r0,r0,#0xe000e000
        0x00001efc:    f89003f0    ....    LDRB     r0,[r0,#0x3f0]
        0x00001f00:    780a        .x      LDRB     r2,[r1,#0]
        0x00001f02:    4290        .B      CMP      r0,r2
        0x00001f04:    d207        ..      BCS      0x1f16 ; vPortValidateInterruptPriority + 42
        0x00001f06:    2050        P       MOVS     r0,#0x50
        0x00001f08:    f3808811    ....    MSR      BASEPRI,r0
        0x00001f0c:    f3bf8f4f    ..O.    DSB      
        0x00001f10:    f3bf8f6f    ..o.    ISB      
        0x00001f14:    e7fe        ..      B        0x1f14 ; vPortValidateInterruptPriority + 40
        0x00001f16:    4809        .H      LDR      r0,[pc,#36] ; [0x1f3c] = 0xe000ed0c
        0x00001f18:    6800        .h      LDR      r0,[r0,#0]
        0x00001f1a:    6889        .h      LDR      r1,[r1,#8]
        0x00001f1c:    f40060e0    ...`    AND      r0,r0,#0x700
        0x00001f20:    4288        .B      CMP      r0,r1
        0x00001f22:    d907        ..      BLS      0x1f34 ; vPortValidateInterruptPriority + 72
        0x00001f24:    2050        P       MOVS     r0,#0x50
        0x00001f26:    f3808811    ....    MSR      BASEPRI,r0
        0x00001f2a:    f3bf8f4f    ..O.    DSB      
        0x00001f2e:    f3bf8f6f    ..o.    ISB      
        0x00001f32:    e7fe        ..      B        0x1f32 ; vPortValidateInterruptPriority + 70
        0x00001f34:    bd10        ..      POP      {r4,pc}
    $d
        0x00001f36:    0000        ..      DCW    0
        0x00001f38:    2000008c    ...     DCD    536871052
        0x00001f3c:    e000ed0c    ....    DCD    3758157068
    $t
    i.vQueueAddToRegistry
    vQueueAddToRegistry
        0x00001f40:    b510        ..      PUSH     {r4,lr}
        0x00001f42:    4b07        .K      LDR      r3,[pc,#28] ; [0x1f60] = 0x200000c8
        0x00001f44:    2200        ."      MOVS     r2,#0
        0x00001f46:    f8534032    S.2@    LDR      r4,[r3,r2,LSL #3]
        0x00001f4a:    b11c        ..      CBZ      r4,0x1f54 ; vQueueAddToRegistry + 20
        0x00001f4c:    1c52        R.      ADDS     r2,r2,#1
        0x00001f4e:    2a08        .*      CMP      r2,#8
        0x00001f50:    d3f9        ..      BCC      0x1f46 ; vQueueAddToRegistry + 6
        0x00001f52:    bd10        ..      POP      {r4,pc}
        0x00001f54:    f8431032    C.2.    STR      r1,[r3,r2,LSL #3]
        0x00001f58:    eb0301c2    ....    ADD      r1,r3,r2,LSL #3
        0x00001f5c:    6048        H`      STR      r0,[r1,#4]
        0x00001f5e:    bd10        ..      POP      {r4,pc}
    $d
        0x00001f60:    200000c8    ...     DCD    536871112
    $t
    i.vQueueWaitForMessageRestricted
    vQueueWaitForMessageRestricted
        0x00001f64:    b570        p.      PUSH     {r4-r6,lr}
        0x00001f66:    4615        .F      MOV      r5,r2
        0x00001f68:    460e        .F      MOV      r6,r1
        0x00001f6a:    4604        .F      MOV      r4,r0
        0x00001f6c:    f7ffff4a    ..J.    BL       vPortEnterCritical ; 0x1e04
        0x00001f70:    f9941044    ..D.    LDRSB    r1,[r4,#0x44]
        0x00001f74:    2000        .       MOVS     r0,#0
        0x00001f76:    1c49        I.      ADDS     r1,r1,#1
        0x00001f78:    d101        ..      BNE      0x1f7e ; vQueueWaitForMessageRestricted + 26
        0x00001f7a:    f8840044    ..D.    STRB     r0,[r4,#0x44]
        0x00001f7e:    f9941045    ..E.    LDRSB    r1,[r4,#0x45]
        0x00001f82:    1c49        I.      ADDS     r1,r1,#1
        0x00001f84:    d101        ..      BNE      0x1f8a ; vQueueWaitForMessageRestricted + 38
        0x00001f86:    f8840045    ..E.    STRB     r0,[r4,#0x45]
        0x00001f8a:    f7ffff5b    ..[.    BL       vPortExitCritical ; 0x1e44
        0x00001f8e:    6ba0        .k      LDR      r0,[r4,#0x38]
        0x00001f90:    b928        (.      CBNZ     r0,0x1f9e ; vQueueWaitForMessageRestricted + 58
        0x00001f92:    462a        *F      MOV      r2,r5
        0x00001f94:    4631        1F      MOV      r1,r6
        0x00001f96:    f1040024    ..$.    ADD      r0,r4,#0x24
        0x00001f9a:    f000f8c9    ....    BL       vTaskPlaceOnEventListRestricted ; 0x2130
        0x00001f9e:    4620         F      MOV      r0,r4
        0x00001fa0:    e8bd4070    ..p@    POP      {r4-r6,lr}
        0x00001fa4:    f7ffbd9c    ....    B.W      prvUnlockQueue ; 0x1ae0
    i.vTaskDelayUntil
    vTaskDelayUntil
        0x00001fa8:    b570        p.      PUSH     {r4-r6,lr}
        0x00001faa:    460e        .F      MOV      r6,r1
        0x00001fac:    0005        ..      MOVS     r5,r0
        0x00001fae:    f04f0300    O...    MOV      r3,#0
        0x00001fb2:    d00b        ..      BEQ      0x1fcc ; vTaskDelayUntil + 36
        0x00001fb4:    b196        ..      CBZ      r6,0x1fdc ; vTaskDelayUntil + 52
        0x00001fb6:    4a1e        .J      LDR      r2,[pc,#120] ; [0x2030] = 0x2000003c
        0x00001fb8:    6b10        .k      LDR      r0,[r2,#0x30]
        0x00001fba:    b1b8        ..      CBZ      r0,0x1fec ; vTaskDelayUntil + 68
        0x00001fbc:    2050        P       MOVS     r0,#0x50
        0x00001fbe:    f3808811    ....    MSR      BASEPRI,r0
        0x00001fc2:    f3bf8f4f    ..O.    DSB      
        0x00001fc6:    f3bf8f6f    ..o.    ISB      
        0x00001fca:    e7fe        ..      B        0x1fca ; vTaskDelayUntil + 34
        0x00001fcc:    2050        P       MOVS     r0,#0x50
        0x00001fce:    f3808811    ....    MSR      BASEPRI,r0
        0x00001fd2:    f3bf8f4f    ..O.    DSB      
        0x00001fd6:    f3bf8f6f    ..o.    ISB      
        0x00001fda:    e7fe        ..      B        0x1fda ; vTaskDelayUntil + 50
        0x00001fdc:    2050        P       MOVS     r0,#0x50
        0x00001fde:    f3808811    ....    MSR      BASEPRI,r0
        0x00001fe2:    f3bf8f4f    ..O.    DSB      
        0x00001fe6:    f3bf8f6f    ..o.    ISB      
        0x00001fea:    e7fe        ..      B        0x1fea ; vTaskDelayUntil + 66
        0x00001fec:    f000f8f4    ....    BL       vTaskSuspendAll ; 0x21d8
        0x00001ff0:    68d2        .h      LDR      r2,[r2,#0xc]
        0x00001ff2:    682c        ,h      LDR      r4,[r5,#0]
        0x00001ff4:    19a1        ..      ADDS     r1,r4,r6
        0x00001ff6:    4294        .B      CMP      r4,r2
        0x00001ff8:    d902        ..      BLS      0x2000 ; vTaskDelayUntil + 88
        0x00001ffa:    428c        .B      CMP      r4,r1
        0x00001ffc:    d802        ..      BHI      0x2004 ; vTaskDelayUntil + 92
        0x00001ffe:    e004        ..      B        0x200a ; vTaskDelayUntil + 98
        0x00002000:    428c        .B      CMP      r4,r1
        0x00002002:    d801        ..      BHI      0x2008 ; vTaskDelayUntil + 96
        0x00002004:    4291        .B      CMP      r1,r2
        0x00002006:    d900        ..      BLS      0x200a ; vTaskDelayUntil + 98
        0x00002008:    2301        .#      MOVS     r3,#1
        0x0000200a:    6029        )`      STR      r1,[r5,#0]
        0x0000200c:    b11b        ..      CBZ      r3,0x2016 ; vTaskDelayUntil + 110
        0x0000200e:    1a88        ..      SUBS     r0,r1,r2
        0x00002010:    2100        .!      MOVS     r1,#0
        0x00002012:    f7fff9e7    ....    BL       prvAddCurrentTaskToDelayedList ; 0x13e4
        0x00002016:    f000fe35    ..5.    BL       xTaskResumeAll ; 0x2c84
        0x0000201a:    2800        .(      CMP      r0,#0
        0x0000201c:    d107        ..      BNE      0x202e ; vTaskDelayUntil + 134
        0x0000201e:    4905        .I      LDR      r1,[pc,#20] ; [0x2034] = 0xe000ed04
        0x00002020:    f04f5080    O..P    MOV      r0,#0x10000000
        0x00002024:    6008        .`      STR      r0,[r1,#0]
        0x00002026:    f3bf8f4f    ..O.    DSB      
        0x0000202a:    f3bf8f6f    ..o.    ISB      
        0x0000202e:    bd70        p.      POP      {r4-r6,pc}
    $d
        0x00002030:    2000003c    <..     DCD    536870972
        0x00002034:    e000ed04    ....    DCD    3758157060
    $t
    i.vTaskDelete
    vTaskDelete
        0x00002038:    b570        p.      PUSH     {r4-r6,lr}
        0x0000203a:    4604        .F      MOV      r4,r0
        0x0000203c:    f7fffee2    ....    BL       vPortEnterCritical ; 0x1e04
        0x00002040:    4d25        %M      LDR      r5,[pc,#148] ; [0x20d8] = 0x2000003c
        0x00002042:    b904        ..      CBNZ     r4,0x2046 ; vTaskDelete + 14
        0x00002044:    682c        ,h      LDR      r4,[r5,#0]
        0x00002046:    1d20         .      ADDS     r0,r4,#4
        0x00002048:    f7fffe5e    ..^.    BL       uxListRemove ; 0x1d08
        0x0000204c:    b958        X.      CBNZ     r0,0x2066 ; vTaskDelete + 46
        0x0000204e:    6ae0        .j      LDR      r0,[r4,#0x2c]
        0x00002050:    4a22        "J      LDR      r2,[pc,#136] ; [0x20dc] = 0x20000108
        0x00002052:    eb000180    ....    ADD      r1,r0,r0,LSL #2
        0x00002056:    f8521021    R.!.    LDR      r1,[r2,r1,LSL #2]
        0x0000205a:    b921        !.      CBNZ     r1,0x2066 ; vTaskDelete + 46
        0x0000205c:    2101        .!      MOVS     r1,#1
        0x0000205e:    4081        .@      LSLS     r1,r1,r0
        0x00002060:    6928        (i      LDR      r0,[r5,#0x10]
        0x00002062:    4388        .C      BICS     r0,r0,r1
        0x00002064:    6128        (a      STR      r0,[r5,#0x10]
        0x00002066:    6aa0        .j      LDR      r0,[r4,#0x28]
        0x00002068:    b118        ..      CBZ      r0,0x2072 ; vTaskDelete + 58
        0x0000206a:    f1040018    ....    ADD      r0,r4,#0x18
        0x0000206e:    f7fffe4b    ..K.    BL       uxListRemove ; 0x1d08
        0x00002072:    6a68        hj      LDR      r0,[r5,#0x24]
        0x00002074:    1c40        @.      ADDS     r0,r0,#1
        0x00002076:    6268        hb      STR      r0,[r5,#0x24]
        0x00002078:    6828        (h      LDR      r0,[r5,#0]
        0x0000207a:    4284        .B      CMP      r4,r0
        0x0000207c:    d108        ..      BNE      0x2090 ; vTaskDelete + 88
        0x0000207e:    4817        .H      LDR      r0,[pc,#92] ; [0x20dc] = 0x20000108
        0x00002080:    1d21        !.      ADDS     r1,r4,#4
        0x00002082:    30a0        .0      ADDS     r0,r0,#0xa0
        0x00002084:    f7fffeb2    ....    BL       vListInsertEnd ; 0x1dec
        0x00002088:    6868        hh      LDR      r0,[r5,#4]
        0x0000208a:    1c40        @.      ADDS     r0,r0,#1
        0x0000208c:    6068        h`      STR      r0,[r5,#4]
        0x0000208e:    e007        ..      B        0x20a0 ; vTaskDelete + 104
        0x00002090:    68a8        .h      LDR      r0,[r5,#8]
        0x00002092:    1e40        @.      SUBS     r0,r0,#1
        0x00002094:    60a8        .`      STR      r0,[r5,#8]
        0x00002096:    4620         F      MOV      r0,r4
        0x00002098:    f7fffab5    ....    BL       prvDeleteTCB ; 0x1606
        0x0000209c:    f7fffc9e    ....    BL       prvResetNextTaskUnblockTime ; 0x19dc
        0x000020a0:    f7fffed0    ....    BL       vPortExitCritical ; 0x1e44
        0x000020a4:    6968        hi      LDR      r0,[r5,#0x14]
        0x000020a6:    2800        .(      CMP      r0,#0
        0x000020a8:    d014        ..      BEQ      0x20d4 ; vTaskDelete + 156
        0x000020aa:    6828        (h      LDR      r0,[r5,#0]
        0x000020ac:    4284        .B      CMP      r4,r0
        0x000020ae:    d111        ..      BNE      0x20d4 ; vTaskDelete + 156
        0x000020b0:    6b28        (k      LDR      r0,[r5,#0x30]
        0x000020b2:    b138        8.      CBZ      r0,0x20c4 ; vTaskDelete + 140
        0x000020b4:    2050        P       MOVS     r0,#0x50
        0x000020b6:    f3808811    ....    MSR      BASEPRI,r0
        0x000020ba:    f3bf8f4f    ..O.    DSB      
        0x000020be:    f3bf8f6f    ..o.    ISB      
        0x000020c2:    e7fe        ..      B        0x20c2 ; vTaskDelete + 138
        0x000020c4:    4906        .I      LDR      r1,[pc,#24] ; [0x20e0] = 0xe000ed04
        0x000020c6:    f04f5080    O..P    MOV      r0,#0x10000000
        0x000020ca:    6008        .`      STR      r0,[r1,#0]
        0x000020cc:    f3bf8f4f    ..O.    DSB      
        0x000020d0:    f3bf8f6f    ..o.    ISB      
        0x000020d4:    bd70        p.      POP      {r4-r6,pc}
    $d
        0x000020d6:    0000        ..      DCW    0
        0x000020d8:    2000003c    <..     DCD    536870972
        0x000020dc:    20000108    ...     DCD    536871176
        0x000020e0:    e000ed04    ....    DCD    3758157060
    $t
    i.vTaskInternalSetTimeOutState
    vTaskInternalSetTimeOutState
        0x000020e4:    4902        .I      LDR      r1,[pc,#8] ; [0x20f0] = 0x2000003c
        0x000020e6:    6a0a        .j      LDR      r2,[r1,#0x20]
        0x000020e8:    6002        .`      STR      r2,[r0,#0]
        0x000020ea:    68c9        .h      LDR      r1,[r1,#0xc]
        0x000020ec:    6041        A`      STR      r1,[r0,#4]
        0x000020ee:    4770        pG      BX       lr
    $d
        0x000020f0:    2000003c    <..     DCD    536870972
    $t
    i.vTaskMissedYield
    vTaskMissedYield
        0x000020f4:    4901        .I      LDR      r1,[pc,#4] ; [0x20fc] = 0x2000003c
        0x000020f6:    2001        .       MOVS     r0,#1
        0x000020f8:    61c8        .a      STR      r0,[r1,#0x1c]
        0x000020fa:    4770        pG      BX       lr
    $d
        0x000020fc:    2000003c    <..     DCD    536870972
    $t
    i.vTaskPlaceOnEventList
    vTaskPlaceOnEventList
        0x00002100:    b510        ..      PUSH     {r4,lr}
        0x00002102:    460c        .F      MOV      r4,r1
        0x00002104:    b150        P.      CBZ      r0,0x211c ; vTaskPlaceOnEventList + 28
        0x00002106:    4909        .I      LDR      r1,[pc,#36] ; [0x212c] = 0x2000003c
        0x00002108:    6809        .h      LDR      r1,[r1,#0]
        0x0000210a:    3118        .1      ADDS     r1,r1,#0x18
        0x0000210c:    f7fffe56    ..V.    BL       vListInsert ; 0x1dbc
        0x00002110:    4620         F      MOV      r0,r4
        0x00002112:    e8bd4010    ...@    POP      {r4,lr}
        0x00002116:    2101        .!      MOVS     r1,#1
        0x00002118:    f7ffb964    ..d.    B        prvAddCurrentTaskToDelayedList ; 0x13e4
        0x0000211c:    2050        P       MOVS     r0,#0x50
        0x0000211e:    f3808811    ....    MSR      BASEPRI,r0
        0x00002122:    f3bf8f4f    ..O.    DSB      
        0x00002126:    f3bf8f6f    ..o.    ISB      
        0x0000212a:    e7fe        ..      B        0x212a ; vTaskPlaceOnEventList + 42
    $d
        0x0000212c:    2000003c    <..     DCD    536870972
    $t
    i.vTaskPlaceOnEventListRestricted
    vTaskPlaceOnEventListRestricted
        0x00002130:    b570        p.      PUSH     {r4-r6,lr}
        0x00002132:    4614        .F      MOV      r4,r2
        0x00002134:    460d        .F      MOV      r5,r1
        0x00002136:    b168        h.      CBZ      r0,0x2154 ; vTaskPlaceOnEventListRestricted + 36
        0x00002138:    490a        .I      LDR      r1,[pc,#40] ; [0x2164] = 0x2000003c
        0x0000213a:    6809        .h      LDR      r1,[r1,#0]
        0x0000213c:    3118        .1      ADDS     r1,r1,#0x18
        0x0000213e:    f7fffe55    ..U.    BL       vListInsertEnd ; 0x1dec
        0x00002142:    b10c        ..      CBZ      r4,0x2148 ; vTaskPlaceOnEventListRestricted + 24
        0x00002144:    f04f35ff    O..5    MOV      r5,#0xffffffff
        0x00002148:    4621        !F      MOV      r1,r4
        0x0000214a:    4628        (F      MOV      r0,r5
        0x0000214c:    e8bd4070    ..p@    POP      {r4-r6,lr}
        0x00002150:    f7ffb948    ..H.    B        prvAddCurrentTaskToDelayedList ; 0x13e4
        0x00002154:    2050        P       MOVS     r0,#0x50
        0x00002156:    f3808811    ....    MSR      BASEPRI,r0
        0x0000215a:    f3bf8f4f    ..O.    DSB      
        0x0000215e:    f3bf8f6f    ..o.    ISB      
        0x00002162:    e7fe        ..      B        0x2162 ; vTaskPlaceOnEventListRestricted + 50
    $d
        0x00002164:    2000003c    <..     DCD    536870972
    $t
    i.vTaskStartScheduler
    vTaskStartScheduler
        0x00002168:    b51c        ..      PUSH     {r2-r4,lr}
        0x0000216a:    4817        .H      LDR      r0,[pc,#92] ; [0x21c8] = 0x20000068
        0x0000216c:    2400        .$      MOVS     r4,#0
        0x0000216e:    e9cd4000    ...@    STRD     r4,r0,[sp,#0]
        0x00002172:    4623        #F      MOV      r3,r4
        0x00002174:    2280        ."      MOVS     r2,#0x80
        0x00002176:    a115        ..      ADR      r1,{pc}+0x56 ; 0x21cc
        0x00002178:    4816        .H      LDR      r0,[pc,#88] ; [0x21d4] = 0x1669
        0x0000217a:    f000fc4d    ..M.    BL       xTaskCreate ; 0x2a18
        0x0000217e:    2801        .(      CMP      r0,#1
        0x00002180:    d103        ..      BNE      0x218a ; vTaskStartScheduler + 34
        0x00002182:    f000fde1    ....    BL       xTimerCreateTimerTask ; 0x2d48
        0x00002186:    2801        .(      CMP      r0,#1
        0x00002188:    d009        ..      BEQ      0x219e ; vTaskStartScheduler + 54
        0x0000218a:    1c40        @.      ADDS     r0,r0,#1
        0x0000218c:    d11a        ..      BNE      0x21c4 ; vTaskStartScheduler + 92
        0x0000218e:    2050        P       MOVS     r0,#0x50
        0x00002190:    f3808811    ....    MSR      BASEPRI,r0
        0x00002194:    f3bf8f4f    ..O.    DSB      
        0x00002198:    f3bf8f6f    ..o.    ISB      
        0x0000219c:    e7fe        ..      B        0x219c ; vTaskStartScheduler + 52
        0x0000219e:    2050        P       MOVS     r0,#0x50
        0x000021a0:    f3808811    ....    MSR      BASEPRI,r0
        0x000021a4:    f3bf8f4f    ..O.    DSB      
        0x000021a8:    f3bf8f6f    ..o.    ISB      
        0x000021ac:    4806        .H      LDR      r0,[pc,#24] ; [0x21c8] = 0x20000068
        0x000021ae:    f04f31ff    O..1    MOV      r1,#0xffffffff
        0x000021b2:    382c        ,8      SUBS     r0,r0,#0x2c
        0x000021b4:    6281        .b      STR      r1,[r0,#0x28]
        0x000021b6:    2101        .!      MOVS     r1,#1
        0x000021b8:    6141        Aa      STR      r1,[r0,#0x14]
        0x000021ba:    60c4        .`      STR      r4,[r0,#0xc]
        0x000021bc:    e8bd401c    ...@    POP      {r2-r4,lr}
        0x000021c0:    f000b94a    ..J.    B.W      xPortStartScheduler ; 0x2458
        0x000021c4:    bd1c        ..      POP      {r2-r4,pc}
    $d
        0x000021c6:    0000        ..      DCW    0
        0x000021c8:    20000068    h..     DCD    536871016
        0x000021cc:    454c4449    IDLE    DCD    1162626121
        0x000021d0:    00000000    ....    DCD    0
        0x000021d4:    00001669    i...    DCD    5737
    $t
    i.vTaskSuspendAll
    vTaskSuspendAll
        0x000021d8:    4802        .H      LDR      r0,[pc,#8] ; [0x21e4] = 0x2000003c
        0x000021da:    6b01        .k      LDR      r1,[r0,#0x30]
        0x000021dc:    1c49        I.      ADDS     r1,r1,#1
        0x000021de:    6301        .c      STR      r1,[r0,#0x30]
        0x000021e0:    4770        pG      BX       lr
    $d
        0x000021e2:    0000        ..      DCW    0
        0x000021e4:    2000003c    <..     DCD    536870972
    $t
    i.vTaskSwitchContext
    vTaskSwitchContext
        0x000021e8:    b510        ..      PUSH     {r4,lr}
        0x000021ea:    4c1f        .L      LDR      r4,[pc,#124] ; [0x2268] = 0x2000003c
        0x000021ec:    6b20         k      LDR      r0,[r4,#0x30]
        0x000021ee:    b110        ..      CBZ      r0,0x21f6 ; vTaskSwitchContext + 14
        0x000021f0:    2001        .       MOVS     r0,#1
        0x000021f2:    61e0        .a      STR      r0,[r4,#0x1c]
        0x000021f4:    bd10        ..      POP      {r4,pc}
        0x000021f6:    2000        .       MOVS     r0,#0
        0x000021f8:    61e0        .a      STR      r0,[r4,#0x1c]
        0x000021fa:    6820         h      LDR      r0,[r4,#0]
        0x000021fc:    f04f32a5    O..2    MOV      r2,#0xa5a5a5a5
        0x00002200:    6b00        .k      LDR      r0,[r0,#0x30]
        0x00002202:    6801        .h      LDR      r1,[r0,#0]
        0x00002204:    4291        .B      CMP      r1,r2
        0x00002206:    d108        ..      BNE      0x221a ; vTaskSwitchContext + 50
        0x00002208:    6841        Ah      LDR      r1,[r0,#4]
        0x0000220a:    4291        .B      CMP      r1,r2
        0x0000220c:    d105        ..      BNE      0x221a ; vTaskSwitchContext + 50
        0x0000220e:    6881        .h      LDR      r1,[r0,#8]
        0x00002210:    4291        .B      CMP      r1,r2
        0x00002212:    d102        ..      BNE      0x221a ; vTaskSwitchContext + 50
        0x00002214:    68c0        .h      LDR      r0,[r0,#0xc]
        0x00002216:    4290        .B      CMP      r0,r2
        0x00002218:    d004        ..      BEQ      0x2224 ; vTaskSwitchContext + 60
        0x0000221a:    6821        !h      LDR      r1,[r4,#0]
        0x0000221c:    6820         h      LDR      r0,[r4,#0]
        0x0000221e:    3134        41      ADDS     r1,r1,#0x34
        0x00002220:    f7fffd9a    ....    BL       vApplicationStackOverflowHook ; 0x1d58
        0x00002224:    6920         i      LDR      r0,[r4,#0x10]
        0x00002226:    4911        .I      LDR      r1,[pc,#68] ; [0x226c] = 0x20000108
        0x00002228:    fab0f080    ....    CLZ      r0,r0
        0x0000222c:    f1c0001f    ....    RSB      r0,r0,#0x1f
        0x00002230:    eb000080    ....    ADD      r0,r0,r0,LSL #2
        0x00002234:    f8512020    Q.      LDR      r2,[r1,r0,LSL #2]
        0x00002238:    b16a        j.      CBZ      r2,0x2256 ; vTaskSwitchContext + 110
        0x0000223a:    eb010080    ....    ADD      r0,r1,r0,LSL #2
        0x0000223e:    f1000208    ....    ADD      r2,r0,#8
        0x00002242:    6841        Ah      LDR      r1,[r0,#4]
        0x00002244:    6849        Ih      LDR      r1,[r1,#4]
        0x00002246:    6041        A`      STR      r1,[r0,#4]
        0x00002248:    4291        .B      CMP      r1,r2
        0x0000224a:    d101        ..      BNE      0x2250 ; vTaskSwitchContext + 104
        0x0000224c:    6849        Ih      LDR      r1,[r1,#4]
        0x0000224e:    6041        A`      STR      r1,[r0,#4]
        0x00002250:    68c8        .h      LDR      r0,[r1,#0xc]
        0x00002252:    6020         `      STR      r0,[r4,#0]
        0x00002254:    bd10        ..      POP      {r4,pc}
        0x00002256:    2050        P       MOVS     r0,#0x50
        0x00002258:    f3808811    ....    MSR      BASEPRI,r0
        0x0000225c:    f3bf8f4f    ..O.    DSB      
        0x00002260:    f3bf8f6f    ..o.    ISB      
        0x00002264:    e7fe        ..      B        0x2264 ; vTaskSwitchContext + 124
    $d
        0x00002266:    0000        ..      DCW    0
        0x00002268:    2000003c    <..     DCD    536870972
        0x0000226c:    20000108    ...     DCD    536871176
    $t
    i.vTask_100ms
    vTask_100ms
        0x00002270:    b508        ..      PUSH     {r3,lr}
        0x00002272:    2464        d$      MOVS     r4,#0x64
        0x00002274:    f000fc10    ....    BL       xTaskGetTickCount ; 0x2a98
        0x00002278:    9000        ..      STR      r0,[sp,#0]
        0x0000227a:    f44f707a    O.zp    MOV      r0,#0x3e8
        0x0000227e:    fb14f500    ....    SMULBB   r5,r4,r0
        0x00002282:    4c06        .L      LDR      r4,[pc,#24] ; [0x229c] = 0x400049c8
        0x00002284:    4606        .F      MOV      r6,r0
        0x00002286:    fbb5f1f6    ....    UDIV     r1,r5,r6
        0x0000228a:    4668        hF      MOV      r0,sp
        0x0000228c:    f7fffe8c    ....    BL       vTaskDelayUntil ; 0x1fa8
        0x00002290:    6820         h      LDR      r0,[r4,#0]
        0x00002292:    f0800001    ....    EOR      r0,r0,#1
        0x00002296:    6020         `      STR      r0,[r4,#0]
        0x00002298:    e7f5        ..      B        0x2286 ; vTask_100ms + 22
    $d
        0x0000229a:    0000        ..      DCW    0
        0x0000229c:    400049c8    .I.@    DCD    1073760712
    $t
    i.vTask_10ms
    vTask_10ms
        0x000022a0:    b508        ..      PUSH     {r3,lr}
        0x000022a2:    240a        .$      MOVS     r4,#0xa
        0x000022a4:    f000fbf8    ....    BL       xTaskGetTickCount ; 0x2a98
        0x000022a8:    9000        ..      STR      r0,[sp,#0]
        0x000022aa:    f44f707a    O.zp    MOV      r0,#0x3e8
        0x000022ae:    fb14f500    ....    SMULBB   r5,r4,r0
        0x000022b2:    4c06        .L      LDR      r4,[pc,#24] ; [0x22cc] = 0x400049c0
        0x000022b4:    4606        .F      MOV      r6,r0
        0x000022b6:    fbb5f1f6    ....    UDIV     r1,r5,r6
        0x000022ba:    4668        hF      MOV      r0,sp
        0x000022bc:    f7fffe74    ..t.    BL       vTaskDelayUntil ; 0x1fa8
        0x000022c0:    6820         h      LDR      r0,[r4,#0]
        0x000022c2:    f0800001    ....    EOR      r0,r0,#1
        0x000022c6:    6020         `      STR      r0,[r4,#0]
        0x000022c8:    e7f5        ..      B        0x22b6 ; vTask_10ms + 22
    $d
        0x000022ca:    0000        ..      DCW    0
        0x000022cc:    400049c0    .I.@    DCD    1073760704
    $t
    i.vTask_50ms
    vTask_50ms
        0x000022d0:    b508        ..      PUSH     {r3,lr}
        0x000022d2:    2432        2$      MOVS     r4,#0x32
        0x000022d4:    f000fbe0    ....    BL       xTaskGetTickCount ; 0x2a98
        0x000022d8:    9000        ..      STR      r0,[sp,#0]
        0x000022da:    f44f707a    O.zp    MOV      r0,#0x3e8
        0x000022de:    fb14f500    ....    SMULBB   r5,r4,r0
        0x000022e2:    4c06        .L      LDR      r4,[pc,#24] ; [0x22fc] = 0x400049c4
        0x000022e4:    4606        .F      MOV      r6,r0
        0x000022e6:    fbb5f1f6    ....    UDIV     r1,r5,r6
        0x000022ea:    4668        hF      MOV      r0,sp
        0x000022ec:    f7fffe5c    ..\.    BL       vTaskDelayUntil ; 0x1fa8
        0x000022f0:    6820         h      LDR      r0,[r4,#0]
        0x000022f2:    f0800001    ....    EOR      r0,r0,#1
        0x000022f6:    6020         `      STR      r0,[r4,#0]
        0x000022f8:    e7f5        ..      B        0x22e6 ; vTask_50ms + 22
    $d
        0x000022fa:    0000        ..      DCW    0
        0x000022fc:    400049c4    .I.@    DCD    1073760708
    $t
    i.vTask_CreateSubTask
    vTask_CreateSubTask
        0x00002300:    4c09        .L      LDR      r4,[pc,#36] ; [0x2328] = 0x20000030
        0x00002302:    f7ffff69    ..i.    BL       vTaskSuspendAll ; 0x21d8
        0x00002306:    a009        ..      ADR      r0,{pc}+0x26 ; 0x232c
        0x00002308:    f7fefd2c    ..,.    BL       __0printf$8 ; 0xd64
        0x0000230c:    480d        .H      LDR      r0,[pc,#52] ; [0x2344] = 0x2000002c
        0x0000230e:    2000        .       MOVS     r0,#0
        0x00002310:    bf00        ..      NOP      
        0x00002312:    f000fcb7    ....    BL       xTaskResumeAll ; 0x2c84
        0x00002316:    6860        `h      LDR      r0,[r4,#4]
        0x00002318:    f0200001     ...    BIC      r0,r0,#1
        0x0000231c:    6060        ``      STR      r0,[r4,#4]
        0x0000231e:    68a0        .h      LDR      r0,[r4,#8]
        0x00002320:    f7fffe8a    ....    BL       vTaskDelete ; 0x2038
        0x00002324:    e7ed        ..      B        0x2302 ; vTask_CreateSubTask + 2
    $d
        0x00002326:    0000        ..      DCW    0
        0x00002328:    20000030    0..     DCD    536870960
        0x0000232c:    3e3e3e3e    >>>>    DCD    1044266558
        0x00002330:    6b736154    Task    DCD    1802723668
        0x00002334:    20627553    Sub     DCD    543323475
        0x00002338:    656c6544    Dele    DCD    1701602628
        0x0000233c:    0a0d6574    te..    DCD    168650100
        0x00002340:    00000000    ....    DCD    0
        0x00002344:    2000002c    ,..     DCD    536870956
    $t
    i.vTask_CreateTask
    vTask_CreateTask
        0x00002348:    b51c        ..      PUSH     {r2-r4,lr}
        0x0000234a:    4e0d        .N      LDR      r6,[pc,#52] ; [0x2380] = 0x20000030
        0x0000234c:    2501        .%      MOVS     r5,#1
        0x0000234e:    f1060408    ....    ADD      r4,r6,#8
        0x00002352:    7930        0y      LDRB     r0,[r6,#4]
        0x00002354:    07c0        ..      LSLS     r0,r0,#31
        0x00002356:    d0fc        ..      BEQ      0x2352 ; vTask_CreateTask + 10
        0x00002358:    e9cd5400    ...T    STRD     r5,r4,[sp,#0]
        0x0000235c:    2300        .#      MOVS     r3,#0
        0x0000235e:    2240        @"      MOVS     r2,#0x40
        0x00002360:    a108        ..      ADR      r1,{pc}+0x24 ; 0x2384
        0x00002362:    480b        .H      LDR      r0,[pc,#44] ; [0x2390] = 0x2301
        0x00002364:    f000fb58    ..X.    BL       xTaskCreate ; 0x2a18
        0x00002368:    f7ffff36    ..6.    BL       vTaskSuspendAll ; 0x21d8
        0x0000236c:    a009        ..      ADR      r0,{pc}+0x28 ; 0x2394
        0x0000236e:    f7fefcf9    ....    BL       __0printf$8 ; 0xd64
        0x00002372:    480e        .H      LDR      r0,[pc,#56] ; [0x23ac] = 0x2000002c
        0x00002374:    2000        .       MOVS     r0,#0
        0x00002376:    bf00        ..      NOP      
        0x00002378:    f000fc84    ....    BL       xTaskResumeAll ; 0x2c84
        0x0000237c:    e7e9        ..      B        0x2352 ; vTask_CreateTask + 10
    $d
        0x0000237e:    0000        ..      DCW    0
        0x00002380:    20000030    0..     DCD    536870960
        0x00002384:    73615476    vTas    DCD    1935758454
        0x00002388:    6275536b    kSub    DCD    1651856235
        0x0000238c:    00000000    ....    DCD    0
        0x00002390:    00002301    .#..    DCD    8961
        0x00002394:    3e3e3e3e    >>>>    DCD    1044266558
        0x00002398:    6b736154    Task    DCD    1802723668
        0x0000239c:    20627553    Sub     DCD    543323475
        0x000023a0:    61657243    Crea    DCD    1634038339
        0x000023a4:    0a0d6574    te..    DCD    168650100
        0x000023a8:    00000000    ....    DCD    0
        0x000023ac:    2000002c    ,..     DCD    536870956
    $t
    i.vTask_RisingFlag
    vTask_RisingFlag
        0x000023b0:    b51c        ..      PUSH     {r2-r4,lr}
        0x000023b2:    f44f77fa    O..w    MOV      r7,#0x1f4
        0x000023b6:    f000fb6f    ..o.    BL       xTaskGetTickCount ; 0x2a98
        0x000023ba:    9001        ..      STR      r0,[sp,#4]
        0x000023bc:    0078        x.      LSLS     r0,r7,#1
        0x000023be:    fb17f500    ....    SMULBB   r5,r7,r0
        0x000023c2:    4c11        .L      LDR      r4,[pc,#68] ; [0x2408] = 0x20000030
        0x000023c4:    4680        .F      MOV      r8,r0
        0x000023c6:    fbb5f1f8    ....    UDIV     r1,r5,r8
        0x000023ca:    a801        ..      ADD      r0,sp,#4
        0x000023cc:    f7fffdec    ....    BL       vTaskDelayUntil ; 0x1fa8
        0x000023d0:    6860        `h      LDR      r0,[r4,#4]
        0x000023d2:    f0400001    @...    ORR      r0,r0,#1
        0x000023d6:    6060        ``      STR      r0,[r4,#4]
        0x000023d8:    f7fffefe    ....    BL       vTaskSuspendAll ; 0x21d8
        0x000023dc:    f7fefffc    ....    BL       osGetCPUUsage ; 0x13d8
        0x000023e0:    4606        .F      MOV      r6,r0
        0x000023e2:    f000f833    ..3.    BL       xPortGetFreeHeapSize ; 0x244c
        0x000023e6:    4603        .F      MOV      r3,r0
        0x000023e8:    9600        ..      STR      r6,[sp,#0]
        0x000023ea:    8820         .      LDRH     r0,[r4,#0]
        0x000023ec:    4639        9F      MOV      r1,r7
        0x000023ee:    1c40        @.      ADDS     r0,r0,#1
        0x000023f0:    b282        ..      UXTH     r2,r0
        0x000023f2:    8022        ".      STRH     r2,[r4,#0]
        0x000023f4:    a005        ..      ADR      r0,{pc}+0x18 ; 0x240c
        0x000023f6:    f7fefcb5    ....    BL       __0printf$8 ; 0xd64
        0x000023fa:    4813        .H      LDR      r0,[pc,#76] ; [0x2448] = 0x2000002c
        0x000023fc:    2000        .       MOVS     r0,#0
        0x000023fe:    bf00        ..      NOP      
        0x00002400:    f000fc40    ..@.    BL       xTaskResumeAll ; 0x2c84
        0x00002404:    e7df        ..      B        0x23c6 ; vTask_RisingFlag + 22
    $d
        0x00002406:    0000        ..      DCW    0
        0x00002408:    20000030    0..     DCD    536870960
        0x0000240c:    69736952    Risi    DCD    1769171282
        0x00002410:    6c46676e    ngFl    DCD    1816553326
        0x00002414:    25286761    ag(%    DCD    623404897
        0x00002418:    736d6434    4dms    DCD    1936548916
        0x0000241c:    253a2029    ) :%    DCD    624566313
        0x00002420:    28206434    4d (    DCD    673211444
        0x00002424:    70616568    heap    DCD    1885431144
        0x00002428:    25203a20     : %    DCD    622869024
        0x0000242c:    62206433    3d b    DCD    1646289971
        0x00002430:    73657479    ytes    DCD    1936028793
        0x00002434:    43202c20     , C    DCD    1126181920
        0x00002438:    3a205550    PU :    DCD    975197520
        0x0000243c:    64332520     %3d    DCD    1681073440
        0x00002440:    0a0d2920     )..    DCD    168634656
        0x00002444:    00000000    ....    DCD    0
        0x00002448:    2000002c    ,..     DCD    536870956
    $t
    i.xPortGetFreeHeapSize
    xPortGetFreeHeapSize
        0x0000244c:    4801        .H      LDR      r0,[pc,#4] ; [0x2454] = 0x20000098
        0x0000244e:    6840        @h      LDR      r0,[r0,#4]
        0x00002450:    4770        pG      BX       lr
    $d
        0x00002452:    0000        ..      DCW    0
        0x00002454:    20000098    ...     DCD    536871064
    $t
    i.xPortStartScheduler
    xPortStartScheduler
        0x00002458:    b51c        ..      PUSH     {r2-r4,lr}
        0x0000245a:    4837        7H      LDR      r0,[pc,#220] ; [0x2538] = 0xe000ed00
        0x0000245c:    6801        .h      LDR      r1,[r0,#0]
        0x0000245e:    4a37        7J      LDR      r2,[pc,#220] ; [0x253c] = 0x410fc271
        0x00002460:    4291        .B      CMP      r1,r2
        0x00002462:    d107        ..      BNE      0x2474 ; xPortStartScheduler + 28
        0x00002464:    2050        P       MOVS     r0,#0x50
        0x00002466:    f3808811    ....    MSR      BASEPRI,r0
        0x0000246a:    f3bf8f4f    ..O.    DSB      
        0x0000246e:    f3bf8f6f    ..o.    ISB      
        0x00002472:    e7fe        ..      B        0x2472 ; xPortStartScheduler + 26
        0x00002474:    6800        .h      LDR      r0,[r0,#0]
        0x00002476:    4931        1I      LDR      r1,[pc,#196] ; [0x253c] = 0x410fc271
        0x00002478:    1e49        I.      SUBS     r1,r1,#1
        0x0000247a:    4288        .B      CMP      r0,r1
        0x0000247c:    d107        ..      BNE      0x248e ; xPortStartScheduler + 54
        0x0000247e:    2050        P       MOVS     r0,#0x50
        0x00002480:    f3808811    ....    MSR      BASEPRI,r0
        0x00002484:    f3bf8f4f    ..O.    DSB      
        0x00002488:    f3bf8f6f    ..o.    ISB      
        0x0000248c:    e7fe        ..      B        0x248c ; xPortStartScheduler + 52
        0x0000248e:    492c        ,I      LDR      r1,[pc,#176] ; [0x2540] = 0xe000e400
        0x00002490:    7808        .x      LDRB     r0,[r1,#0]
        0x00002492:    9001        ..      STR      r0,[sp,#4]
        0x00002494:    20ff        .       MOVS     r0,#0xff
        0x00002496:    7008        .p      STRB     r0,[r1,#0]
        0x00002498:    7808        .x      LDRB     r0,[r1,#0]
        0x0000249a:    f88d0000    ....    STRB     r0,[sp,#0]
        0x0000249e:    f89d0000    ....    LDRB     r0,[sp,#0]
        0x000024a2:    f89d2000    ...     LDRB     r2,[sp,#0]
        0x000024a6:    f00000f0    ....    AND      r0,r0,#0xf0
        0x000024aa:    4290        .B      CMP      r0,r2
        0x000024ac:    d007        ..      BEQ      0x24be ; xPortStartScheduler + 102
        0x000024ae:    2050        P       MOVS     r0,#0x50
        0x000024b0:    f3808811    ....    MSR      BASEPRI,r0
        0x000024b4:    f3bf8f4f    ..O.    DSB      
        0x000024b8:    f3bf8f6f    ..o.    ISB      
        0x000024bc:    e7fe        ..      B        0x24bc ; xPortStartScheduler + 100
        0x000024be:    f89d0000    ....    LDRB     r0,[sp,#0]
        0x000024c2:    4b20         K      LDR      r3,[pc,#128] ; [0x2544] = 0x2000008c
        0x000024c4:    f0000050    ..P.    AND      r0,r0,#0x50
        0x000024c8:    7018        .p      STRB     r0,[r3,#0]
        0x000024ca:    2007        .       MOVS     r0,#7
        0x000024cc:    6098        .`      STR      r0,[r3,#8]
        0x000024ce:    e006        ..      B        0x24de ; xPortStartScheduler + 134
        0x000024d0:    1e40        @.      SUBS     r0,r0,#1
        0x000024d2:    6098        .`      STR      r0,[r3,#8]
        0x000024d4:    f89d0000    ....    LDRB     r0,[sp,#0]
        0x000024d8:    0040        @.      LSLS     r0,r0,#1
        0x000024da:    f88d0000    ....    STRB     r0,[sp,#0]
        0x000024de:    f89d0000    ....    LDRB     r0,[sp,#0]
        0x000024e2:    0600        ..      LSLS     r0,r0,#24
        0x000024e4:    6898        .h      LDR      r0,[r3,#8]
        0x000024e6:    d4f3        ..      BMI      0x24d0 ; xPortStartScheduler + 120
        0x000024e8:    2803        .(      CMP      r0,#3
        0x000024ea:    d007        ..      BEQ      0x24fc ; xPortStartScheduler + 164
        0x000024ec:    2050        P       MOVS     r0,#0x50
        0x000024ee:    f3808811    ....    MSR      BASEPRI,r0
        0x000024f2:    f3bf8f4f    ..O.    DSB      
        0x000024f6:    f3bf8f6f    ..o.    ISB      
        0x000024fa:    e7fe        ..      B        0x24fa ; xPortStartScheduler + 162
        0x000024fc:    f44f7040    O.@p    MOV      r0,#0x300
        0x00002500:    6098        .`      STR      r0,[r3,#8]
        0x00002502:    9801        ..      LDR      r0,[sp,#4]
        0x00002504:    7008        .p      STRB     r0,[r1,#0]
        0x00002506:    480c        .H      LDR      r0,[pc,#48] ; [0x2538] = 0xe000ed00
        0x00002508:    3020         0      ADDS     r0,r0,#0x20
        0x0000250a:    6801        .h      LDR      r1,[r0,#0]
        0x0000250c:    f4410170    A.p.    ORR      r1,r1,#0xf00000
        0x00002510:    6001        .`      STR      r1,[r0,#0]
        0x00002512:    6801        .h      LDR      r1,[r0,#0]
        0x00002514:    f0414170    A.pA    ORR      r1,r1,#0xf0000000
        0x00002518:    6001        .`      STR      r1,[r0,#0]
        0x0000251a:    f7fffcd5    ....    BL       vPortSetupTimerInterrupt ; 0x1ec8
        0x0000251e:    2000        .       MOVS     r0,#0
        0x00002520:    6058        X`      STR      r0,[r3,#4]
        0x00002522:    f7fdfea3    ....    BL       __asm___6_port_c_39a90d8d__prvEnableVFP ; 0x26c
        0x00002526:    4808        .H      LDR      r0,[pc,#32] ; [0x2548] = 0xe000ef34
        0x00002528:    6801        .h      LDR      r1,[r0,#0]
        0x0000252a:    f0414140    A.@A    ORR      r1,r1,#0xc0000000
        0x0000252e:    6001        .`      STR      r1,[r0,#0]
        0x00002530:    f7fdfe88    ....    BL       __asm___6_port_c_39a90d8d__prvStartFirstTask ; 0x244
        0x00002534:    2000        .       MOVS     r0,#0
        0x00002536:    bd1c        ..      POP      {r2-r4,pc}
    $d
        0x00002538:    e000ed00    ....    DCD    3758157056
        0x0000253c:    410fc271    q..A    DCD    1091551857
        0x00002540:    e000e400    ....    DCD    3758154752
        0x00002544:    2000008c    ...     DCD    536871052
        0x00002548:    e000ef34    4...    DCD    3758157620
    $t
    i.xQueueGenericCreate
    xQueueGenericCreate
        0x0000254c:    e92d41f0    -..A    PUSH     {r4-r8,lr}
        0x00002550:    4617        .F      MOV      r7,r2
        0x00002552:    460e        .F      MOV      r6,r1
        0x00002554:    0005        ..      MOVS     r5,r0
        0x00002556:    d018        ..      BEQ      0x258a ; xQueueGenericCreate + 62
        0x00002558:    b1fe        ..      CBZ      r6,0x259a ; xQueueGenericCreate + 78
        0x0000255a:    fb05f006    ....    MUL      r0,r5,r6
        0x0000255e:    3054        T0      ADDS     r0,r0,#0x54
        0x00002560:    f7fffafa    ....    BL       pvPortMalloc ; 0x1b58
        0x00002564:    0004        ..      MOVS     r4,r0
        0x00002566:    d00e        ..      BEQ      0x2586 ; xQueueGenericCreate + 58
        0x00002568:    f1040054    ..T.    ADD      r0,r4,#0x54
        0x0000256c:    b1be        ..      CBZ      r6,0x259e ; xQueueGenericCreate + 82
        0x0000256e:    6020         `      STR      r0,[r4,#0]
        0x00002570:    e9c4560f    ...V    STRD     r5,r6,[r4,#0x3c]
        0x00002574:    4620         F      MOV      r0,r4
        0x00002576:    2101        .!      MOVS     r1,#1
        0x00002578:    f000f814    ....    BL       xQueueGenericReset ; 0x25a4
        0x0000257c:    f8847050    ..Pp    STRB     r7,[r4,#0x50]
        0x00002580:    2100        .!      MOVS     r1,#0
        0x00002582:    4620         F      MOV      r0,r4
        0x00002584:    64a1        .d      STR      r1,[r4,#0x48]
        0x00002586:    e8bd81f0    ....    POP      {r4-r8,pc}
        0x0000258a:    2050        P       MOVS     r0,#0x50
        0x0000258c:    f3808811    ....    MSR      BASEPRI,r0
        0x00002590:    f3bf8f4f    ..O.    DSB      
        0x00002594:    f3bf8f6f    ..o.    ISB      
        0x00002598:    e7fe        ..      B        0x2598 ; xQueueGenericCreate + 76
        0x0000259a:    2000        .       MOVS     r0,#0
        0x0000259c:    e7df        ..      B        0x255e ; xQueueGenericCreate + 18
        0x0000259e:    6024        $`      STR      r4,[r4,#0]
        0x000025a0:    e7e6        ..      B        0x2570 ; xQueueGenericCreate + 36
        0x000025a2:    0000        ..      MOVS     r0,r0
    i.xQueueGenericReset
    xQueueGenericReset
        0x000025a4:    b570        p.      PUSH     {r4-r6,lr}
        0x000025a6:    460d        .F      MOV      r5,r1
        0x000025a8:    0004        ..      MOVS     r4,r0
        0x000025aa:    d025        %.      BEQ      0x25f8 ; xQueueGenericReset + 84
        0x000025ac:    f7fffc2a    ..*.    BL       vPortEnterCritical ; 0x1e04
        0x000025b0:    e9d4200f    ...     LDRD     r2,r0,[r4,#0x3c]
        0x000025b4:    6821        !h      LDR      r1,[r4,#0]
        0x000025b6:    fb021100    ....    MLA      r1,r2,r0,r1
        0x000025ba:    6061        a`      STR      r1,[r4,#4]
        0x000025bc:    2100        .!      MOVS     r1,#0
        0x000025be:    63a1        .c      STR      r1,[r4,#0x38]
        0x000025c0:    6821        !h      LDR      r1,[r4,#0]
        0x000025c2:    60a1        .`      STR      r1,[r4,#8]
        0x000025c4:    460a        .F      MOV      r2,r1
        0x000025c6:    e9d4010f    ....    LDRD     r0,r1,[r4,#0x3c]
        0x000025ca:    1e40        @.      SUBS     r0,r0,#1
        0x000025cc:    fb002101    ...!    MLA      r1,r0,r1,r2
        0x000025d0:    60e1        .`      STR      r1,[r4,#0xc]
        0x000025d2:    4621        !F      MOV      r1,r4
        0x000025d4:    f04f30ff    O..0    MOV      r0,#0xffffffff
        0x000025d8:    f8010f44    ..D.    STRB     r0,[r1,#0x44]!
        0x000025dc:    7048        Hp      STRB     r0,[r1,#1]
        0x000025de:    f1040010    ....    ADD      r0,r4,#0x10
        0x000025e2:    b18d        ..      CBZ      r5,0x2608 ; xQueueGenericReset + 100
        0x000025e4:    f7fffbdc    ....    BL       vListInitialise ; 0x1da0
        0x000025e8:    f1040024    ..$.    ADD      r0,r4,#0x24
        0x000025ec:    f7fffbd8    ....    BL       vListInitialise ; 0x1da0
        0x000025f0:    f7fffc28    ..(.    BL       vPortExitCritical ; 0x1e44
        0x000025f4:    2001        .       MOVS     r0,#1
        0x000025f6:    bd70        p.      POP      {r4-r6,pc}
        0x000025f8:    2050        P       MOVS     r0,#0x50
        0x000025fa:    f3808811    ....    MSR      BASEPRI,r0
        0x000025fe:    f3bf8f4f    ..O.    DSB      
        0x00002602:    f3bf8f6f    ..o.    ISB      
        0x00002606:    e7fe        ..      B        0x2606 ; xQueueGenericReset + 98
        0x00002608:    6921        !i      LDR      r1,[r4,#0x10]
        0x0000260a:    2900        .)      CMP      r1,#0
        0x0000260c:    d0f0        ..      BEQ      0x25f0 ; xQueueGenericReset + 76
        0x0000260e:    f000faff    ....    BL       xTaskRemoveFromEventList ; 0x2c10
        0x00002612:    2800        .(      CMP      r0,#0
        0x00002614:    d0ec        ..      BEQ      0x25f0 ; xQueueGenericReset + 76
        0x00002616:    4904        .I      LDR      r1,[pc,#16] ; [0x2628] = 0xe000ed04
        0x00002618:    f04f5080    O..P    MOV      r0,#0x10000000
        0x0000261c:    6008        .`      STR      r0,[r1,#0]
        0x0000261e:    f3bf8f4f    ..O.    DSB      
        0x00002622:    f3bf8f6f    ..o.    ISB      
        0x00002626:    e7e3        ..      B        0x25f0 ; xQueueGenericReset + 76
    $d
        0x00002628:    e000ed04    ....    DCD    3758157060
    $t
    i.xQueueGenericSend
    xQueueGenericSend
        0x0000262c:    e92d4fff    -..O    PUSH     {r0-r11,lr}
        0x00002630:    b083        ..      SUB      sp,sp,#0xc
        0x00002632:    4699        .F      MOV      r9,r3
        0x00002634:    468b        .F      MOV      r11,r1
        0x00002636:    0004        ..      MOVS     r4,r0
        0x00002638:    f04f0600    O...    MOV      r6,#0
        0x0000263c:    d003        ..      BEQ      0x2646 ; xQueueGenericSend + 26
        0x0000263e:    f1bb0f00    ....    CMP      r11,#0
        0x00002642:    d008        ..      BEQ      0x2656 ; xQueueGenericSend + 42
        0x00002644:    e011        ..      B        0x266a ; xQueueGenericSend + 62
        0x00002646:    2050        P       MOVS     r0,#0x50
        0x00002648:    f3808811    ....    MSR      BASEPRI,r0
        0x0000264c:    f3bf8f4f    ..O.    DSB      
        0x00002650:    f3bf8f6f    ..o.    ISB      
        0x00002654:    e7fe        ..      B        0x2654 ; xQueueGenericSend + 40
        0x00002656:    6c20         l      LDR      r0,[r4,#0x40]
        0x00002658:    b138        8.      CBZ      r0,0x266a ; xQueueGenericSend + 62
        0x0000265a:    2050        P       MOVS     r0,#0x50
        0x0000265c:    f3808811    ....    MSR      BASEPRI,r0
        0x00002660:    f3bf8f4f    ..O.    DSB      
        0x00002664:    f3bf8f6f    ..o.    ISB      
        0x00002668:    e7fe        ..      B        0x2668 ; xQueueGenericSend + 60
        0x0000266a:    f1b90f02    ....    CMP      r9,#2
        0x0000266e:    d10a        ..      BNE      0x2686 ; xQueueGenericSend + 90
        0x00002670:    6be0        .k      LDR      r0,[r4,#0x3c]
        0x00002672:    2801        .(      CMP      r0,#1
        0x00002674:    d007        ..      BEQ      0x2686 ; xQueueGenericSend + 90
        0x00002676:    2050        P       MOVS     r0,#0x50
        0x00002678:    f3808811    ....    MSR      BASEPRI,r0
        0x0000267c:    f3bf8f4f    ..O.    DSB      
        0x00002680:    f3bf8f6f    ..o.    ISB      
        0x00002684:    e7fe        ..      B        0x2684 ; xQueueGenericSend + 88
        0x00002686:    f000f9f9    ....    BL       xTaskGetSchedulerState ; 0x2a7c
        0x0000268a:    f8df8110    ....    LDR      r8,[pc,#272] ; [0x279c] = 0xe000ed04
        0x0000268e:    f04f0a00    O...    MOV      r10,#0
        0x00002692:    f04f5780    O..W    MOV      r7,#0x10000000
        0x00002696:    b948        H.      CBNZ     r0,0x26ac ; xQueueGenericSend + 128
        0x00002698:    9805        ..      LDR      r0,[sp,#0x14]
        0x0000269a:    b138        8.      CBZ      r0,0x26ac ; xQueueGenericSend + 128
        0x0000269c:    2050        P       MOVS     r0,#0x50
        0x0000269e:    f3808811    ....    MSR      BASEPRI,r0
        0x000026a2:    f3bf8f4f    ..O.    DSB      
        0x000026a6:    f3bf8f6f    ..o.    ISB      
        0x000026aa:    e7fe        ..      B        0x26aa ; xQueueGenericSend + 126
        0x000026ac:    f7fffbaa    ....    BL       vPortEnterCritical ; 0x1e04
        0x000026b0:    6ba0        .k      LDR      r0,[r4,#0x38]
        0x000026b2:    6be1        .k      LDR      r1,[r4,#0x3c]
        0x000026b4:    4288        .B      CMP      r0,r1
        0x000026b6:    d306        ..      BCC      0x26c6 ; xQueueGenericSend + 154
        0x000026b8:    f1b90f02    ....    CMP      r9,#2
        0x000026bc:    d003        ..      BEQ      0x26c6 ; xQueueGenericSend + 154
        0x000026be:    9805        ..      LDR      r0,[sp,#0x14]
        0x000026c0:    b300        ..      CBZ      r0,0x2704 ; xQueueGenericSend + 216
        0x000026c2:    b316        ..      CBZ      r6,0x270a ; xQueueGenericSend + 222
        0x000026c4:    e025        %.      B        0x2712 ; xQueueGenericSend + 230
        0x000026c6:    464a        JF      MOV      r2,r9
        0x000026c8:    4659        YF      MOV      r1,r11
        0x000026ca:    4620         F      MOV      r0,r4
        0x000026cc:    f7feff65    ..e.    BL       prvCopyDataToQueue ; 0x159a
        0x000026d0:    6ca1        .l      LDR      r1,[r4,#0x48]
        0x000026d2:    b121        !.      CBZ      r1,0x26de ; xQueueGenericSend + 178
        0x000026d4:    4649        IF      MOV      r1,r9
        0x000026d6:    4620         F      MOV      r0,r4
        0x000026d8:    f7fff893    ....    BL       prvNotifyQueueSetContainer ; 0x1802
        0x000026dc:    e005        ..      B        0x26ea ; xQueueGenericSend + 190
        0x000026de:    6a61        aj      LDR      r1,[r4,#0x24]
        0x000026e0:    b119        ..      CBZ      r1,0x26ea ; xQueueGenericSend + 190
        0x000026e2:    f1040024    ..$.    ADD      r0,r4,#0x24
        0x000026e6:    f000fa93    ....    BL       xTaskRemoveFromEventList ; 0x2c10
        0x000026ea:    b128        (.      CBZ      r0,0x26f8 ; xQueueGenericSend + 204
        0x000026ec:    f8c87000    ...p    STR      r7,[r8,#0]
        0x000026f0:    f3bf8f4f    ..O.    DSB      
        0x000026f4:    f3bf8f6f    ..o.    ISB      
        0x000026f8:    f7fffba4    ....    BL       vPortExitCritical ; 0x1e44
        0x000026fc:    2001        .       MOVS     r0,#1
        0x000026fe:    b007        ..      ADD      sp,sp,#0x1c
        0x00002700:    e8bd8ff0    ....    POP      {r4-r11,pc}
        0x00002704:    f7fffb9e    ....    BL       vPortExitCritical ; 0x1e44
        0x00002708:    e021        !.      B        0x274e ; xQueueGenericSend + 290
        0x0000270a:    4668        hF      MOV      r0,sp
        0x0000270c:    f7fffcea    ....    BL       vTaskInternalSetTimeOutState ; 0x20e4
        0x00002710:    2601        .&      MOVS     r6,#1
        0x00002712:    f7fffb97    ....    BL       vPortExitCritical ; 0x1e44
        0x00002716:    f7fffd5f    .._.    BL       vTaskSuspendAll ; 0x21d8
        0x0000271a:    f7fffb73    ..s.    BL       vPortEnterCritical ; 0x1e04
        0x0000271e:    f9940044    ..D.    LDRSB    r0,[r4,#0x44]
        0x00002722:    1c40        @.      ADDS     r0,r0,#1
        0x00002724:    d101        ..      BNE      0x272a ; xQueueGenericSend + 254
        0x00002726:    f884a044    ..D.    STRB     r10,[r4,#0x44]
        0x0000272a:    f9940045    ..E.    LDRSB    r0,[r4,#0x45]
        0x0000272e:    1c40        @.      ADDS     r0,r0,#1
        0x00002730:    d101        ..      BNE      0x2736 ; xQueueGenericSend + 266
        0x00002732:    f884a045    ..E.    STRB     r10,[r4,#0x45]
        0x00002736:    f7fffb85    ....    BL       vPortExitCritical ; 0x1e44
        0x0000273a:    a905        ..      ADD      r1,sp,#0x14
        0x0000273c:    4668        hF      MOV      r0,sp
        0x0000273e:    f000f931    ..1.    BL       xTaskCheckForTimeOut ; 0x29a4
        0x00002742:    b130        0.      CBZ      r0,0x2752 ; xQueueGenericSend + 294
        0x00002744:    4620         F      MOV      r0,r4
        0x00002746:    f7fff9cb    ....    BL       prvUnlockQueue ; 0x1ae0
        0x0000274a:    f000fa9b    ....    BL       xTaskResumeAll ; 0x2c84
        0x0000274e:    2000        .       MOVS     r0,#0
        0x00002750:    e7d5        ..      B        0x26fe ; xQueueGenericSend + 210
        0x00002752:    f7fffb57    ..W.    BL       vPortEnterCritical ; 0x1e04
        0x00002756:    6ba0        .k      LDR      r0,[r4,#0x38]
        0x00002758:    6be1        .k      LDR      r1,[r4,#0x3c]
        0x0000275a:    4288        .B      CMP      r0,r1
        0x0000275c:    d101        ..      BNE      0x2762 ; xQueueGenericSend + 310
        0x0000275e:    2501        .%      MOVS     r5,#1
        0x00002760:    e000        ..      B        0x2764 ; xQueueGenericSend + 312
        0x00002762:    2500        .%      MOVS     r5,#0
        0x00002764:    f7fffb6e    ..n.    BL       vPortExitCritical ; 0x1e44
        0x00002768:    b195        ..      CBZ      r5,0x2790 ; xQueueGenericSend + 356
        0x0000276a:    f1040010    ....    ADD      r0,r4,#0x10
        0x0000276e:    9905        ..      LDR      r1,[sp,#0x14]
        0x00002770:    f7fffcc6    ....    BL       vTaskPlaceOnEventList ; 0x2100
        0x00002774:    4620         F      MOV      r0,r4
        0x00002776:    f7fff9b3    ....    BL       prvUnlockQueue ; 0x1ae0
        0x0000277a:    f000fa83    ....    BL       xTaskResumeAll ; 0x2c84
        0x0000277e:    2800        .(      CMP      r0,#0
        0x00002780:    d194        ..      BNE      0x26ac ; xQueueGenericSend + 128
        0x00002782:    f8c87000    ...p    STR      r7,[r8,#0]
        0x00002786:    f3bf8f4f    ..O.    DSB      
        0x0000278a:    f3bf8f6f    ..o.    ISB      
        0x0000278e:    e78d        ..      B        0x26ac ; xQueueGenericSend + 128
        0x00002790:    4620         F      MOV      r0,r4
        0x00002792:    f7fff9a5    ....    BL       prvUnlockQueue ; 0x1ae0
        0x00002796:    f000fa75    ..u.    BL       xTaskResumeAll ; 0x2c84
        0x0000279a:    e787        ..      B        0x26ac ; xQueueGenericSend + 128
    $d
        0x0000279c:    e000ed04    ....    DCD    3758157060
    $t
    i.xQueueGenericSendFromISR
    xQueueGenericSendFromISR
        0x000027a0:    e92d47f0    -..G    PUSH     {r4-r10,lr}
        0x000027a4:    4698        .F      MOV      r8,r3
        0x000027a6:    4615        .F      MOV      r5,r2
        0x000027a8:    4689        .F      MOV      r9,r1
        0x000027aa:    0004        ..      MOVS     r4,r0
        0x000027ac:    d003        ..      BEQ      0x27b6 ; xQueueGenericSendFromISR + 22
        0x000027ae:    f1b90f00    ....    CMP      r9,#0
        0x000027b2:    d008        ..      BEQ      0x27c6 ; xQueueGenericSendFromISR + 38
        0x000027b4:    e011        ..      B        0x27da ; xQueueGenericSendFromISR + 58
        0x000027b6:    2050        P       MOVS     r0,#0x50
        0x000027b8:    f3808811    ....    MSR      BASEPRI,r0
        0x000027bc:    f3bf8f4f    ..O.    DSB      
        0x000027c0:    f3bf8f6f    ..o.    ISB      
        0x000027c4:    e7fe        ..      B        0x27c4 ; xQueueGenericSendFromISR + 36
        0x000027c6:    6c20         l      LDR      r0,[r4,#0x40]
        0x000027c8:    b138        8.      CBZ      r0,0x27da ; xQueueGenericSendFromISR + 58
        0x000027ca:    2050        P       MOVS     r0,#0x50
        0x000027cc:    f3808811    ....    MSR      BASEPRI,r0
        0x000027d0:    f3bf8f4f    ..O.    DSB      
        0x000027d4:    f3bf8f6f    ..o.    ISB      
        0x000027d8:    e7fe        ..      B        0x27d8 ; xQueueGenericSendFromISR + 56
        0x000027da:    f1b80f02    ....    CMP      r8,#2
        0x000027de:    d10a        ..      BNE      0x27f6 ; xQueueGenericSendFromISR + 86
        0x000027e0:    6be0        .k      LDR      r0,[r4,#0x3c]
        0x000027e2:    2801        .(      CMP      r0,#1
        0x000027e4:    d007        ..      BEQ      0x27f6 ; xQueueGenericSendFromISR + 86
        0x000027e6:    2050        P       MOVS     r0,#0x50
        0x000027e8:    f3808811    ....    MSR      BASEPRI,r0
        0x000027ec:    f3bf8f4f    ..O.    DSB      
        0x000027f0:    f3bf8f6f    ..o.    ISB      
        0x000027f4:    e7fe        ..      B        0x27f4 ; xQueueGenericSendFromISR + 84
        0x000027f6:    f7fffb79    ..y.    BL       vPortValidateInterruptPriority ; 0x1eec
        0x000027fa:    2050        P       MOVS     r0,#0x50
        0x000027fc:    f3ef8711    ....    MRS      r7,BASEPRI
        0x00002800:    f3808811    ....    MSR      BASEPRI,r0
        0x00002804:    f3bf8f4f    ..O.    DSB      
        0x00002808:    f3bf8f6f    ..o.    ISB      
        0x0000280c:    6ba0        .k      LDR      r0,[r4,#0x38]
        0x0000280e:    6be1        .k      LDR      r1,[r4,#0x3c]
        0x00002810:    4288        .B      CMP      r0,r1
        0x00002812:    d307        ..      BCC      0x2824 ; xQueueGenericSendFromISR + 132
        0x00002814:    f1b80f02    ....    CMP      r8,#2
        0x00002818:    d004        ..      BEQ      0x2824 ; xQueueGenericSendFromISR + 132
        0x0000281a:    2000        .       MOVS     r0,#0
        0x0000281c:    f3878811    ....    MSR      BASEPRI,r7
        0x00002820:    e8bd87f0    ....    POP      {r4-r10,pc}
        0x00002824:    f9946045    ..E`    LDRSB    r6,[r4,#0x45]
        0x00002828:    4642        BF      MOV      r2,r8
        0x0000282a:    4649        IF      MOV      r1,r9
        0x0000282c:    4620         F      MOV      r0,r4
        0x0000282e:    f7fefeb4    ....    BL       prvCopyDataToQueue ; 0x159a
        0x00002832:    1c70        p.      ADDS     r0,r6,#1
        0x00002834:    d004        ..      BEQ      0x2840 ; xQueueGenericSendFromISR + 160
        0x00002836:    1c76        v.      ADDS     r6,r6,#1
        0x00002838:    f8846045    ..E`    STRB     r6,[r4,#0x45]
        0x0000283c:    2001        .       MOVS     r0,#1
        0x0000283e:    e7ed        ..      B        0x281c ; xQueueGenericSendFromISR + 124
        0x00002840:    6ca0        .l      LDR      r0,[r4,#0x48]
        0x00002842:    2601        .&      MOVS     r6,#1
        0x00002844:    b120         .      CBZ      r0,0x2850 ; xQueueGenericSendFromISR + 176
        0x00002846:    4641        AF      MOV      r1,r8
        0x00002848:    4620         F      MOV      r0,r4
        0x0000284a:    f7feffda    ....    BL       prvNotifyQueueSetContainer ; 0x1802
        0x0000284e:    e006        ..      B        0x285e ; xQueueGenericSendFromISR + 190
        0x00002850:    6a60        `j      LDR      r0,[r4,#0x24]
        0x00002852:    2800        .(      CMP      r0,#0
        0x00002854:    d0f2        ..      BEQ      0x283c ; xQueueGenericSendFromISR + 156
        0x00002856:    f1040024    ..$.    ADD      r0,r4,#0x24
        0x0000285a:    f000f9d9    ....    BL       xTaskRemoveFromEventList ; 0x2c10
        0x0000285e:    2800        .(      CMP      r0,#0
        0x00002860:    d0ec        ..      BEQ      0x283c ; xQueueGenericSendFromISR + 156
        0x00002862:    2d00        .-      CMP      r5,#0
        0x00002864:    d0ea        ..      BEQ      0x283c ; xQueueGenericSendFromISR + 156
        0x00002866:    602e        .`      STR      r6,[r5,#0]
        0x00002868:    e7e8        ..      B        0x283c ; xQueueGenericSendFromISR + 156
        0x0000286a:    0000        ..      MOVS     r0,r0
    i.xQueueReceive
    xQueueReceive
        0x0000286c:    e92d47f7    -..G    PUSH     {r0-r2,r4-r10,lr}
        0x00002870:    b083        ..      SUB      sp,sp,#0xc
        0x00002872:    468a        .F      MOV      r10,r1
        0x00002874:    0004        ..      MOVS     r4,r0
        0x00002876:    f04f0600    O...    MOV      r6,#0
        0x0000287a:    d003        ..      BEQ      0x2884 ; xQueueReceive + 24
        0x0000287c:    f1ba0f00    ....    CMP      r10,#0
        0x00002880:    d008        ..      BEQ      0x2894 ; xQueueReceive + 40
        0x00002882:    e011        ..      B        0x28a8 ; xQueueReceive + 60
        0x00002884:    2050        P       MOVS     r0,#0x50
        0x00002886:    f3808811    ....    MSR      BASEPRI,r0
        0x0000288a:    f3bf8f4f    ..O.    DSB      
        0x0000288e:    f3bf8f6f    ..o.    ISB      
        0x00002892:    e7fe        ..      B        0x2892 ; xQueueReceive + 38
        0x00002894:    6c20         l      LDR      r0,[r4,#0x40]
        0x00002896:    b138        8.      CBZ      r0,0x28a8 ; xQueueReceive + 60
        0x00002898:    2050        P       MOVS     r0,#0x50
        0x0000289a:    f3808811    ....    MSR      BASEPRI,r0
        0x0000289e:    f3bf8f4f    ..O.    DSB      
        0x000028a2:    f3bf8f6f    ..o.    ISB      
        0x000028a6:    e7fe        ..      B        0x28a6 ; xQueueReceive + 58
        0x000028a8:    f000f8e8    ....    BL       xTaskGetSchedulerState ; 0x2a7c
        0x000028ac:    f8df90f0    ....    LDR      r9,[pc,#240] ; [0x29a0] = 0xe000ed04
        0x000028b0:    2700        .'      MOVS     r7,#0
        0x000028b2:    f04f5880    O..X    MOV      r8,#0x10000000
        0x000028b6:    b948        H.      CBNZ     r0,0x28cc ; xQueueReceive + 96
        0x000028b8:    9805        ..      LDR      r0,[sp,#0x14]
        0x000028ba:    b138        8.      CBZ      r0,0x28cc ; xQueueReceive + 96
        0x000028bc:    2050        P       MOVS     r0,#0x50
        0x000028be:    f3808811    ....    MSR      BASEPRI,r0
        0x000028c2:    f3bf8f4f    ..O.    DSB      
        0x000028c6:    f3bf8f6f    ..o.    ISB      
        0x000028ca:    e7fe        ..      B        0x28ca ; xQueueReceive + 94
        0x000028cc:    f7fffa9a    ....    BL       vPortEnterCritical ; 0x1e04
        0x000028d0:    6ba5        .k      LDR      r5,[r4,#0x38]
        0x000028d2:    b1c5        ..      CBZ      r5,0x2906 ; xQueueReceive + 154
        0x000028d4:    4651        QF      MOV      r1,r10
        0x000028d6:    4620         F      MOV      r0,r4
        0x000028d8:    f7fefe4c    ..L.    BL       prvCopyDataFromQueue ; 0x1574
        0x000028dc:    1e6d        m.      SUBS     r5,r5,#1
        0x000028de:    63a5        .c      STR      r5,[r4,#0x38]
        0x000028e0:    6920         i      LDR      r0,[r4,#0x10]
        0x000028e2:    b150        P.      CBZ      r0,0x28fa ; xQueueReceive + 142
        0x000028e4:    f1040010    ....    ADD      r0,r4,#0x10
        0x000028e8:    f000f992    ....    BL       xTaskRemoveFromEventList ; 0x2c10
        0x000028ec:    b128        (.      CBZ      r0,0x28fa ; xQueueReceive + 142
        0x000028ee:    f8c98000    ....    STR      r8,[r9,#0]
        0x000028f2:    f3bf8f4f    ..O.    DSB      
        0x000028f6:    f3bf8f6f    ..o.    ISB      
        0x000028fa:    f7fffaa3    ....    BL       vPortExitCritical ; 0x1e44
        0x000028fe:    2001        .       MOVS     r0,#1
        0x00002900:    b006        ..      ADD      sp,sp,#0x18
        0x00002902:    e8bd87f0    ....    POP      {r4-r10,pc}
        0x00002906:    9805        ..      LDR      r0,[sp,#0x14]
        0x00002908:    b108        ..      CBZ      r0,0x290e ; xQueueReceive + 162
        0x0000290a:    b11e        ..      CBZ      r6,0x2914 ; xQueueReceive + 168
        0x0000290c:    e006        ..      B        0x291c ; xQueueReceive + 176
        0x0000290e:    f7fffa99    ....    BL       vPortExitCritical ; 0x1e44
        0x00002912:    e027        '.      B        0x2964 ; xQueueReceive + 248
        0x00002914:    4668        hF      MOV      r0,sp
        0x00002916:    f7fffbe5    ....    BL       vTaskInternalSetTimeOutState ; 0x20e4
        0x0000291a:    2601        .&      MOVS     r6,#1
        0x0000291c:    f7fffa92    ....    BL       vPortExitCritical ; 0x1e44
        0x00002920:    f7fffc5a    ..Z.    BL       vTaskSuspendAll ; 0x21d8
        0x00002924:    f7fffa6e    ..n.    BL       vPortEnterCritical ; 0x1e04
        0x00002928:    f9940044    ..D.    LDRSB    r0,[r4,#0x44]
        0x0000292c:    1c40        @.      ADDS     r0,r0,#1
        0x0000292e:    d101        ..      BNE      0x2934 ; xQueueReceive + 200
        0x00002930:    f8847044    ..Dp    STRB     r7,[r4,#0x44]
        0x00002934:    f9940045    ..E.    LDRSB    r0,[r4,#0x45]
        0x00002938:    1c40        @.      ADDS     r0,r0,#1
        0x0000293a:    d101        ..      BNE      0x2940 ; xQueueReceive + 212
        0x0000293c:    f8847045    ..Ep    STRB     r7,[r4,#0x45]
        0x00002940:    f7fffa80    ....    BL       vPortExitCritical ; 0x1e44
        0x00002944:    a905        ..      ADD      r1,sp,#0x14
        0x00002946:    4668        hF      MOV      r0,sp
        0x00002948:    f000f82c    ..,.    BL       xTaskCheckForTimeOut ; 0x29a4
        0x0000294c:    2800        .(      CMP      r0,#0
        0x0000294e:    4620         F      MOV      r0,r4
        0x00002950:    d00a        ..      BEQ      0x2968 ; xQueueReceive + 252
        0x00002952:    f7fff8c5    ....    BL       prvUnlockQueue ; 0x1ae0
        0x00002956:    f000f995    ....    BL       xTaskResumeAll ; 0x2c84
        0x0000295a:    4620         F      MOV      r0,r4
        0x0000295c:    f7feff44    ..D.    BL       prvIsQueueEmpty ; 0x17e8
        0x00002960:    2800        .(      CMP      r0,#0
        0x00002962:    d0b3        ..      BEQ      0x28cc ; xQueueReceive + 96
        0x00002964:    2000        .       MOVS     r0,#0
        0x00002966:    e7cb        ..      B        0x2900 ; xQueueReceive + 148
        0x00002968:    f7feff3e    ..>.    BL       prvIsQueueEmpty ; 0x17e8
        0x0000296c:    b190        ..      CBZ      r0,0x2994 ; xQueueReceive + 296
        0x0000296e:    f1040024    ..$.    ADD      r0,r4,#0x24
        0x00002972:    9905        ..      LDR      r1,[sp,#0x14]
        0x00002974:    f7fffbc4    ....    BL       vTaskPlaceOnEventList ; 0x2100
        0x00002978:    4620         F      MOV      r0,r4
        0x0000297a:    f7fff8b1    ....    BL       prvUnlockQueue ; 0x1ae0
        0x0000297e:    f000f981    ....    BL       xTaskResumeAll ; 0x2c84
        0x00002982:    2800        .(      CMP      r0,#0
        0x00002984:    d1a2        ..      BNE      0x28cc ; xQueueReceive + 96
        0x00002986:    f8c98000    ....    STR      r8,[r9,#0]
        0x0000298a:    f3bf8f4f    ..O.    DSB      
        0x0000298e:    f3bf8f6f    ..o.    ISB      
        0x00002992:    e79b        ..      B        0x28cc ; xQueueReceive + 96
        0x00002994:    4620         F      MOV      r0,r4
        0x00002996:    f7fff8a3    ....    BL       prvUnlockQueue ; 0x1ae0
        0x0000299a:    f000f973    ..s.    BL       xTaskResumeAll ; 0x2c84
        0x0000299e:    e795        ..      B        0x28cc ; xQueueReceive + 96
    $d
        0x000029a0:    e000ed04    ....    DCD    3758157060
    $t
    i.xTaskCheckForTimeOut
    xTaskCheckForTimeOut
        0x000029a4:    e92d41f0    -..A    PUSH     {r4-r8,lr}
        0x000029a8:    460c        .F      MOV      r4,r1
        0x000029aa:    0005        ..      MOVS     r5,r0
        0x000029ac:    d011        ..      BEQ      0x29d2 ; xTaskCheckForTimeOut + 46
        0x000029ae:    b1c4        ..      CBZ      r4,0x29e2 ; xTaskCheckForTimeOut + 62
        0x000029b0:    f7fffa28    ..(.    BL       vPortEnterCritical ; 0x1e04
        0x000029b4:    4e17        .N      LDR      r6,[pc,#92] ; [0x2a14] = 0x2000003c
        0x000029b6:    68f1        .h      LDR      r1,[r6,#0xc]
        0x000029b8:    686b        kh      LDR      r3,[r5,#4]
        0x000029ba:    6822        "h      LDR      r2,[r4,#0]
        0x000029bc:    1ac8        ..      SUBS     r0,r1,r3
        0x000029be:    1c57        W.      ADDS     r7,r2,#1
        0x000029c0:    d017        ..      BEQ      0x29f2 ; xTaskCheckForTimeOut + 78
        0x000029c2:    682f        /h      LDR      r7,[r5,#0]
        0x000029c4:    6a36        6j      LDR      r6,[r6,#0x20]
        0x000029c6:    42b7        .B      CMP      r7,r6
        0x000029c8:    d019        ..      BEQ      0x29fe ; xTaskCheckForTimeOut + 90
        0x000029ca:    428b        .B      CMP      r3,r1
        0x000029cc:    d817        ..      BHI      0x29fe ; xTaskCheckForTimeOut + 90
        0x000029ce:    2401        .$      MOVS     r4,#1
        0x000029d0:    e010        ..      B        0x29f4 ; xTaskCheckForTimeOut + 80
        0x000029d2:    2050        P       MOVS     r0,#0x50
        0x000029d4:    f3808811    ....    MSR      BASEPRI,r0
        0x000029d8:    f3bf8f4f    ..O.    DSB      
        0x000029dc:    f3bf8f6f    ..o.    ISB      
        0x000029e0:    e7fe        ..      B        0x29e0 ; xTaskCheckForTimeOut + 60
        0x000029e2:    2050        P       MOVS     r0,#0x50
        0x000029e4:    f3808811    ....    MSR      BASEPRI,r0
        0x000029e8:    f3bf8f4f    ..O.    DSB      
        0x000029ec:    f3bf8f6f    ..o.    ISB      
        0x000029f0:    e7fe        ..      B        0x29f0 ; xTaskCheckForTimeOut + 76
        0x000029f2:    2400        .$      MOVS     r4,#0
        0x000029f4:    f7fffa26    ..&.    BL       vPortExitCritical ; 0x1e44
        0x000029f8:    4620         F      MOV      r0,r4
        0x000029fa:    e8bd81f0    ....    POP      {r4-r8,pc}
        0x000029fe:    4282        .B      CMP      r2,r0
        0x00002a00:    d905        ..      BLS      0x2a0e ; xTaskCheckForTimeOut + 106
        0x00002a02:    1a10        ..      SUBS     r0,r2,r0
        0x00002a04:    6020         `      STR      r0,[r4,#0]
        0x00002a06:    4628        (F      MOV      r0,r5
        0x00002a08:    f7fffb6c    ..l.    BL       vTaskInternalSetTimeOutState ; 0x20e4
        0x00002a0c:    e7f1        ..      B        0x29f2 ; xTaskCheckForTimeOut + 78
        0x00002a0e:    2000        .       MOVS     r0,#0
        0x00002a10:    6020         `      STR      r0,[r4,#0]
        0x00002a12:    e7dc        ..      B        0x29ce ; xTaskCheckForTimeOut + 42
    $d
        0x00002a14:    2000003c    <..     DCD    536870972
    $t
    i.xTaskCreate
    xTaskCreate
        0x00002a18:    e92d5fff    -.._    PUSH     {r0-r12,lr}
        0x00002a1c:    4683        .F      MOV      r11,r0
        0x00002a1e:    e9dd870e    ....    LDRD     r8,r7,[sp,#0x38]
        0x00002a22:    4699        .F      MOV      r9,r3
        0x00002a24:    4616        .F      MOV      r6,r2
        0x00002a26:    468a        .F      MOV      r10,r1
        0x00002a28:    0090        ..      LSLS     r0,r2,#2
        0x00002a2a:    f7fff895    ....    BL       pvPortMalloc ; 0x1b58
        0x00002a2e:    0005        ..      MOVS     r5,r0
        0x00002a30:    d01a        ..      BEQ      0x2a68 ; xTaskCreate + 80
        0x00002a32:    205c        \       MOVS     r0,#0x5c
        0x00002a34:    f7fff890    ....    BL       pvPortMalloc ; 0x1b58
        0x00002a38:    0004        ..      MOVS     r4,r0
        0x00002a3a:    d012        ..      BEQ      0x2a62 ; xTaskCreate + 74
        0x00002a3c:    6325        %c      STR      r5,[r4,#0x30]
        0x00002a3e:    2100        .!      MOVS     r1,#0
        0x00002a40:    e9cd4102    ...A    STRD     r4,r1,[sp,#8]
        0x00002a44:    e9cd8700    ....    STRD     r8,r7,[sp,#0]
        0x00002a48:    464b        KF      MOV      r3,r9
        0x00002a4a:    4632        2F      MOV      r2,r6
        0x00002a4c:    4651        QF      MOV      r1,r10
        0x00002a4e:    4658        XF      MOV      r0,r11
        0x00002a50:    f7fefe3a    ..:.    BL       prvInitialiseNewTask ; 0x16c8
        0x00002a54:    4620         F      MOV      r0,r4
        0x00002a56:    f7fefcfd    ....    BL       prvAddNewTaskToReadyList ; 0x1454
        0x00002a5a:    2001        .       MOVS     r0,#1
        0x00002a5c:    b004        ..      ADD      sp,sp,#0x10
        0x00002a5e:    e8bd9ff0    ....    POP      {r4-r12,pc}
        0x00002a62:    4628        (F      MOV      r0,r5
        0x00002a64:    f7fffa02    ....    BL       vPortFree ; 0x1e6c
        0x00002a68:    f04f30ff    O..0    MOV      r0,#0xffffffff
        0x00002a6c:    e7f6        ..      B        0x2a5c ; xTaskCreate + 68
        0x00002a6e:    0000        ..      MOVS     r0,r0
    i.xTaskGetCurrentTaskHandle
    xTaskGetCurrentTaskHandle
        0x00002a70:    4801        .H      LDR      r0,[pc,#4] ; [0x2a78] = 0x2000003c
        0x00002a72:    6800        .h      LDR      r0,[r0,#0]
        0x00002a74:    4770        pG      BX       lr
    $d
        0x00002a76:    0000        ..      DCW    0
        0x00002a78:    2000003c    <..     DCD    536870972
    $t
    i.xTaskGetSchedulerState
    xTaskGetSchedulerState
        0x00002a7c:    4805        .H      LDR      r0,[pc,#20] ; [0x2a94] = 0x2000003c
        0x00002a7e:    6941        Ai      LDR      r1,[r0,#0x14]
        0x00002a80:    b119        ..      CBZ      r1,0x2a8a ; xTaskGetSchedulerState + 14
        0x00002a82:    6b00        .k      LDR      r0,[r0,#0x30]
        0x00002a84:    b118        ..      CBZ      r0,0x2a8e ; xTaskGetSchedulerState + 18
        0x00002a86:    2000        .       MOVS     r0,#0
        0x00002a88:    4770        pG      BX       lr
        0x00002a8a:    2001        .       MOVS     r0,#1
        0x00002a8c:    4770        pG      BX       lr
        0x00002a8e:    2002        .       MOVS     r0,#2
        0x00002a90:    4770        pG      BX       lr
    $d
        0x00002a92:    0000        ..      DCW    0
        0x00002a94:    2000003c    <..     DCD    536870972
    $t
    i.xTaskGetTickCount
    xTaskGetTickCount
        0x00002a98:    4801        .H      LDR      r0,[pc,#4] ; [0x2aa0] = 0x2000003c
        0x00002a9a:    68c0        .h      LDR      r0,[r0,#0xc]
        0x00002a9c:    4770        pG      BX       lr
    $d
        0x00002a9e:    0000        ..      DCW    0
        0x00002aa0:    2000003c    <..     DCD    536870972
    $t
    i.xTaskIncrementTick
    xTaskIncrementTick
        0x00002aa4:    e92d41f0    -..A    PUSH     {r4-r8,lr}
        0x00002aa8:    4f31        1O      LDR      r7,[pc,#196] ; [0x2b70] = 0x2000003c
        0x00002aaa:    2600        .&      MOVS     r6,#0
        0x00002aac:    6b38        8k      LDR      r0,[r7,#0x30]
        0x00002aae:    b118        ..      CBZ      r0,0x2ab8 ; xTaskIncrementTick + 20
        0x00002ab0:    69b8        .i      LDR      r0,[r7,#0x18]
        0x00002ab2:    1c40        @.      ADDS     r0,r0,#1
        0x00002ab4:    61b8        .a      STR      r0,[r7,#0x18]
        0x00002ab6:    e052        R.      B        0x2b5e ; xTaskIncrementTick + 186
        0x00002ab8:    68fd        .h      LDR      r5,[r7,#0xc]
        0x00002aba:    1c6d        m.      ADDS     r5,r5,#1
        0x00002abc:    60fd        .`      STR      r5,[r7,#0xc]
        0x00002abe:    d113        ..      BNE      0x2ae8 ; xTaskIncrementTick + 68
        0x00002ac0:    6b78        xk      LDR      r0,[r7,#0x34]
        0x00002ac2:    6800        .h      LDR      r0,[r0,#0]
        0x00002ac4:    b138        8.      CBZ      r0,0x2ad6 ; xTaskIncrementTick + 50
        0x00002ac6:    2050        P       MOVS     r0,#0x50
        0x00002ac8:    f3808811    ....    MSR      BASEPRI,r0
        0x00002acc:    f3bf8f4f    ..O.    DSB      
        0x00002ad0:    f3bf8f6f    ..o.    ISB      
        0x00002ad4:    e7fe        ..      B        0x2ad4 ; xTaskIncrementTick + 48
        0x00002ad6:    6b78        xk      LDR      r0,[r7,#0x34]
        0x00002ad8:    6bb9        .k      LDR      r1,[r7,#0x38]
        0x00002ada:    6379        yc      STR      r1,[r7,#0x34]
        0x00002adc:    63b8        .c      STR      r0,[r7,#0x38]
        0x00002ade:    6a38        8j      LDR      r0,[r7,#0x20]
        0x00002ae0:    1c40        @.      ADDS     r0,r0,#1
        0x00002ae2:    6238        8b      STR      r0,[r7,#0x20]
        0x00002ae4:    f7feff7a    ..z.    BL       prvResetNextTaskUnblockTime ; 0x19dc
        0x00002ae8:    6ab8        .j      LDR      r0,[r7,#0x28]
        0x00002aea:    f8df8088    ....    LDR      r8,[pc,#136] ; [0x2b74] = 0x20000108
        0x00002aee:    4285        .B      CMP      r5,r0
        0x00002af0:    d309        ..      BCC      0x2b06 ; xTaskIncrementTick + 98
        0x00002af2:    6b78        xk      LDR      r0,[r7,#0x34]
        0x00002af4:    6800        .h      LDR      r0,[r0,#0]
        0x00002af6:    b190        ..      CBZ      r0,0x2b1e ; xTaskIncrementTick + 122
        0x00002af8:    6b78        xk      LDR      r0,[r7,#0x34]
        0x00002afa:    68c0        .h      LDR      r0,[r0,#0xc]
        0x00002afc:    68c4        .h      LDR      r4,[r0,#0xc]
        0x00002afe:    6860        `h      LDR      r0,[r4,#4]
        0x00002b00:    4285        .B      CMP      r5,r0
        0x00002b02:    d20f        ..      BCS      0x2b24 ; xTaskIncrementTick + 128
        0x00002b04:    62b8        .b      STR      r0,[r7,#0x28]
        0x00002b06:    6838        8h      LDR      r0,[r7,#0]
        0x00002b08:    6ac0        .j      LDR      r0,[r0,#0x2c]
        0x00002b0a:    eb000180    ....    ADD      r1,r0,r0,LSL #2
        0x00002b0e:    f8580021    X.!.    LDR      r0,[r8,r1,LSL #2]
        0x00002b12:    2801        .(      CMP      r0,#1
        0x00002b14:    d900        ..      BLS      0x2b18 ; xTaskIncrementTick + 116
        0x00002b16:    2601        .&      MOVS     r6,#1
        0x00002b18:    69b8        .i      LDR      r0,[r7,#0x18]
        0x00002b1a:    b300        ..      CBZ      r0,0x2b5e ; xTaskIncrementTick + 186
        0x00002b1c:    e021        !.      B        0x2b62 ; xTaskIncrementTick + 190
        0x00002b1e:    f04f30ff    O..0    MOV      r0,#0xffffffff
        0x00002b22:    e7ef        ..      B        0x2b04 ; xTaskIncrementTick + 96
        0x00002b24:    1d20         .      ADDS     r0,r4,#4
        0x00002b26:    f7fff8ef    ....    BL       uxListRemove ; 0x1d08
        0x00002b2a:    6aa0        .j      LDR      r0,[r4,#0x28]
        0x00002b2c:    b118        ..      CBZ      r0,0x2b36 ; xTaskIncrementTick + 146
        0x00002b2e:    f1040018    ....    ADD      r0,r4,#0x18
        0x00002b32:    f7fff8e9    ....    BL       uxListRemove ; 0x1d08
        0x00002b36:    6ae0        .j      LDR      r0,[r4,#0x2c]
        0x00002b38:    2101        .!      MOVS     r1,#1
        0x00002b3a:    693a        :i      LDR      r2,[r7,#0x10]
        0x00002b3c:    4081        .@      LSLS     r1,r1,r0
        0x00002b3e:    4311        .C      ORRS     r1,r1,r2
        0x00002b40:    6139        9a      STR      r1,[r7,#0x10]
        0x00002b42:    eb000180    ....    ADD      r1,r0,r0,LSL #2
        0x00002b46:    eb080081    ....    ADD      r0,r8,r1,LSL #2
        0x00002b4a:    1d21        !.      ADDS     r1,r4,#4
        0x00002b4c:    f7fff94e    ..N.    BL       vListInsertEnd ; 0x1dec
        0x00002b50:    6ae0        .j      LDR      r0,[r4,#0x2c]
        0x00002b52:    6839        9h      LDR      r1,[r7,#0]
        0x00002b54:    6ac9        .j      LDR      r1,[r1,#0x2c]
        0x00002b56:    4288        .B      CMP      r0,r1
        0x00002b58:    d3cb        ..      BCC      0x2af2 ; xTaskIncrementTick + 78
        0x00002b5a:    2601        .&      MOVS     r6,#1
        0x00002b5c:    e7c9        ..      B        0x2af2 ; xTaskIncrementTick + 78
        0x00002b5e:    f7fff903    ....    BL       vApplicationTickHook ; 0x1d68
        0x00002b62:    69f8        .i      LDR      r0,[r7,#0x1c]
        0x00002b64:    b100        ..      CBZ      r0,0x2b68 ; xTaskIncrementTick + 196
        0x00002b66:    2601        .&      MOVS     r6,#1
        0x00002b68:    4630        0F      MOV      r0,r6
        0x00002b6a:    e8bd81f0    ....    POP      {r4-r8,pc}
    $d
        0x00002b6e:    0000        ..      DCW    0
        0x00002b70:    2000003c    <..     DCD    536870972
        0x00002b74:    20000108    ...     DCD    536871176
    $t
    i.xTaskPriorityDisinherit
    xTaskPriorityDisinherit
        0x00002b78:    b570        p.      PUSH     {r4-r6,lr}
        0x00002b7a:    0004        ..      MOVS     r4,r0
        0x00002b7c:    f04f0000    O...    MOV      r0,#0
        0x00002b80:    d041        A.      BEQ      0x2c06 ; xTaskPriorityDisinherit + 142
        0x00002b82:    4d21        !M      LDR      r5,[pc,#132] ; [0x2c08] = 0x2000003c
        0x00002b84:    6829        )h      LDR      r1,[r5,#0]
        0x00002b86:    428c        .B      CMP      r4,r1
        0x00002b88:    d007        ..      BEQ      0x2b9a ; xTaskPriorityDisinherit + 34
        0x00002b8a:    2050        P       MOVS     r0,#0x50
        0x00002b8c:    f3808811    ....    MSR      BASEPRI,r0
        0x00002b90:    f3bf8f4f    ..O.    DSB      
        0x00002b94:    f3bf8f6f    ..o.    ISB      
        0x00002b98:    e7fe        ..      B        0x2b98 ; xTaskPriorityDisinherit + 32
        0x00002b9a:    6d21        !m      LDR      r1,[r4,#0x50]
        0x00002b9c:    b171        q.      CBZ      r1,0x2bbc ; xTaskPriorityDisinherit + 68
        0x00002b9e:    1e49        I.      SUBS     r1,r1,#1
        0x00002ba0:    6521        !e      STR      r1,[r4,#0x50]
        0x00002ba2:    6ce3        .l      LDR      r3,[r4,#0x4c]
        0x00002ba4:    6ae2        .j      LDR      r2,[r4,#0x2c]
        0x00002ba6:    429a        .B      CMP      r2,r3
        0x00002ba8:    d02d        -.      BEQ      0x2c06 ; xTaskPriorityDisinherit + 142
        0x00002baa:    2900        .)      CMP      r1,#0
        0x00002bac:    d12b        +.      BNE      0x2c06 ; xTaskPriorityDisinherit + 142
        0x00002bae:    1d20         .      ADDS     r0,r4,#4
        0x00002bb0:    f7fff8aa    ....    BL       uxListRemove ; 0x1d08
        0x00002bb4:    4915        .I      LDR      r1,[pc,#84] ; [0x2c0c] = 0x20000108
        0x00002bb6:    2201        ."      MOVS     r2,#1
        0x00002bb8:    b140        @.      CBZ      r0,0x2bcc ; xTaskPriorityDisinherit + 84
        0x00002bba:    e012        ..      B        0x2be2 ; xTaskPriorityDisinherit + 106
        0x00002bbc:    2050        P       MOVS     r0,#0x50
        0x00002bbe:    f3808811    ....    MSR      BASEPRI,r0
        0x00002bc2:    f3bf8f4f    ..O.    DSB      
        0x00002bc6:    f3bf8f6f    ..o.    ISB      
        0x00002bca:    e7fe        ..      B        0x2bca ; xTaskPriorityDisinherit + 82
        0x00002bcc:    6ae0        .j      LDR      r0,[r4,#0x2c]
        0x00002bce:    eb000380    ....    ADD      r3,r0,r0,LSL #2
        0x00002bd2:    f8513023    Q.#0    LDR      r3,[r1,r3,LSL #2]
        0x00002bd6:    b923        #.      CBNZ     r3,0x2be2 ; xTaskPriorityDisinherit + 106
        0x00002bd8:    692b        +i      LDR      r3,[r5,#0x10]
        0x00002bda:    fa02f000    ....    LSL      r0,r2,r0
        0x00002bde:    4383        .C      BICS     r3,r3,r0
        0x00002be0:    612b        +a      STR      r3,[r5,#0x10]
        0x00002be2:    6ce0        .l      LDR      r0,[r4,#0x4c]
        0x00002be4:    62e0        .b      STR      r0,[r4,#0x2c]
        0x00002be6:    f1c00005    ....    RSB      r0,r0,#5
        0x00002bea:    61a0        .a      STR      r0,[r4,#0x18]
        0x00002bec:    6ae0        .j      LDR      r0,[r4,#0x2c]
        0x00002bee:    692b        +i      LDR      r3,[r5,#0x10]
        0x00002bf0:    4082        .@      LSLS     r2,r2,r0
        0x00002bf2:    431a        .C      ORRS     r2,r2,r3
        0x00002bf4:    612a        *a      STR      r2,[r5,#0x10]
        0x00002bf6:    eb000080    ....    ADD      r0,r0,r0,LSL #2
        0x00002bfa:    eb010080    ....    ADD      r0,r1,r0,LSL #2
        0x00002bfe:    1d21        !.      ADDS     r1,r4,#4
        0x00002c00:    f7fff8f4    ....    BL       vListInsertEnd ; 0x1dec
        0x00002c04:    2001        .       MOVS     r0,#1
        0x00002c06:    bd70        p.      POP      {r4-r6,pc}
    $d
        0x00002c08:    2000003c    <..     DCD    536870972
        0x00002c0c:    20000108    ...     DCD    536871176
    $t
    i.xTaskRemoveFromEventList
    xTaskRemoveFromEventList
        0x00002c10:    e92d41f0    -..A    PUSH     {r4-r8,lr}
        0x00002c14:    68c0        .h      LDR      r0,[r0,#0xc]
        0x00002c16:    68c4        .h      LDR      r4,[r0,#0xc]
        0x00002c18:    b1ac        ..      CBZ      r4,0x2c46 ; xTaskRemoveFromEventList + 54
        0x00002c1a:    f1040018    ....    ADD      r0,r4,#0x18
        0x00002c1e:    4607        .F      MOV      r7,r0
        0x00002c20:    f7fff872    ..r.    BL       uxListRemove ; 0x1d08
        0x00002c24:    4d15        .M      LDR      r5,[pc,#84] ; [0x2c7c] = 0x2000003c
        0x00002c26:    6b28        (k      LDR      r0,[r5,#0x30]
        0x00002c28:    2601        .&      MOVS     r6,#1
        0x00002c2a:    b1a0        ..      CBZ      r0,0x2c56 ; xTaskRemoveFromEventList + 70
        0x00002c2c:    4639        9F      MOV      r1,r7
        0x00002c2e:    4814        .H      LDR      r0,[pc,#80] ; [0x2c80] = 0x20000194
        0x00002c30:    f7fff8dc    ....    BL       vListInsertEnd ; 0x1dec
        0x00002c34:    6ae0        .j      LDR      r0,[r4,#0x2c]
        0x00002c36:    6829        )h      LDR      r1,[r5,#0]
        0x00002c38:    6ac9        .j      LDR      r1,[r1,#0x2c]
        0x00002c3a:    4288        .B      CMP      r0,r1
        0x00002c3c:    d91c        ..      BLS      0x2c78 ; xTaskRemoveFromEventList + 104
        0x00002c3e:    2001        .       MOVS     r0,#1
        0x00002c40:    61ee        .a      STR      r6,[r5,#0x1c]
        0x00002c42:    e8bd81f0    ....    POP      {r4-r8,pc}
        0x00002c46:    2050        P       MOVS     r0,#0x50
        0x00002c48:    f3808811    ....    MSR      BASEPRI,r0
        0x00002c4c:    f3bf8f4f    ..O.    DSB      
        0x00002c50:    f3bf8f6f    ..o.    ISB      
        0x00002c54:    e7fe        ..      B        0x2c54 ; xTaskRemoveFromEventList + 68
        0x00002c56:    1d20         .      ADDS     r0,r4,#4
        0x00002c58:    f7fff856    ..V.    BL       uxListRemove ; 0x1d08
        0x00002c5c:    6ae0        .j      LDR      r0,[r4,#0x2c]
        0x00002c5e:    692a        *i      LDR      r2,[r5,#0x10]
        0x00002c60:    fa06f100    ....    LSL      r1,r6,r0
        0x00002c64:    4311        .C      ORRS     r1,r1,r2
        0x00002c66:    6129        )a      STR      r1,[r5,#0x10]
        0x00002c68:    4905        .I      LDR      r1,[pc,#20] ; [0x2c80] = 0x20000194
        0x00002c6a:    eb000080    ....    ADD      r0,r0,r0,LSL #2
        0x00002c6e:    398c        .9      SUBS     r1,r1,#0x8c
        0x00002c70:    eb010080    ....    ADD      r0,r1,r0,LSL #2
        0x00002c74:    1d21        !.      ADDS     r1,r4,#4
        0x00002c76:    e7db        ..      B        0x2c30 ; xTaskRemoveFromEventList + 32
        0x00002c78:    2000        .       MOVS     r0,#0
        0x00002c7a:    e7e2        ..      B        0x2c42 ; xTaskRemoveFromEventList + 50
    $d
        0x00002c7c:    2000003c    <..     DCD    536870972
        0x00002c80:    20000194    ...     DCD    536871316
    $t
    i.xTaskResumeAll
    xTaskResumeAll
        0x00002c84:    e92d47f0    -..G    PUSH     {r4-r10,lr}
        0x00002c88:    4d2c        ,M      LDR      r5,[pc,#176] ; [0x2d3c] = 0x2000003c
        0x00002c8a:    2400        .$      MOVS     r4,#0
        0x00002c8c:    4627        'F      MOV      r7,r4
        0x00002c8e:    6b28        (k      LDR      r0,[r5,#0x30]
        0x00002c90:    b138        8.      CBZ      r0,0x2ca2 ; xTaskResumeAll + 30
        0x00002c92:    f7fff8b7    ....    BL       vPortEnterCritical ; 0x1e04
        0x00002c96:    6b28        (k      LDR      r0,[r5,#0x30]
        0x00002c98:    1e40        @.      SUBS     r0,r0,#1
        0x00002c9a:    6328        (c      STR      r0,[r5,#0x30]
        0x00002c9c:    6b28        (k      LDR      r0,[r5,#0x30]
        0x00002c9e:    b140        @.      CBZ      r0,0x2cb2 ; xTaskResumeAll + 46
        0x00002ca0:    e046        F.      B        0x2d30 ; xTaskResumeAll + 172
        0x00002ca2:    2050        P       MOVS     r0,#0x50
        0x00002ca4:    f3808811    ....    MSR      BASEPRI,r0
        0x00002ca8:    f3bf8f4f    ..O.    DSB      
        0x00002cac:    f3bf8f6f    ..o.    ISB      
        0x00002cb0:    e7fe        ..      B        0x2cb0 ; xTaskResumeAll + 44
        0x00002cb2:    68a8        .h      LDR      r0,[r5,#8]
        0x00002cb4:    4922        "I      LDR      r1,[pc,#136] ; [0x2d40] = 0x20000194
        0x00002cb6:    2601        .&      MOVS     r6,#1
        0x00002cb8:    b3d0        ..      CBZ      r0,0x2d30 ; xTaskResumeAll + 172
        0x00002cba:    f1a1098c    ....    SUB      r9,r1,#0x8c
        0x00002cbe:    4688        .F      MOV      r8,r1
        0x00002cc0:    f8d81000    ....    LDR      r1,[r8,#0]
        0x00002cc4:    b1e9        ..      CBZ      r1,0x2d02 ; xTaskResumeAll + 126
        0x00002cc6:    f8d8000c    ....    LDR      r0,[r8,#0xc]
        0x00002cca:    68c4        .h      LDR      r4,[r0,#0xc]
        0x00002ccc:    f1040018    ....    ADD      r0,r4,#0x18
        0x00002cd0:    f7fff81a    ....    BL       uxListRemove ; 0x1d08
        0x00002cd4:    1d20         .      ADDS     r0,r4,#4
        0x00002cd6:    f7fff817    ....    BL       uxListRemove ; 0x1d08
        0x00002cda:    6ae0        .j      LDR      r0,[r4,#0x2c]
        0x00002cdc:    692a        *i      LDR      r2,[r5,#0x10]
        0x00002cde:    fa06f100    ....    LSL      r1,r6,r0
        0x00002ce2:    4311        .C      ORRS     r1,r1,r2
        0x00002ce4:    6129        )a      STR      r1,[r5,#0x10]
        0x00002ce6:    eb000180    ....    ADD      r1,r0,r0,LSL #2
        0x00002cea:    eb090081    ....    ADD      r0,r9,r1,LSL #2
        0x00002cee:    1d21        !.      ADDS     r1,r4,#4
        0x00002cf0:    f7fff87c    ..|.    BL       vListInsertEnd ; 0x1dec
        0x00002cf4:    6ae0        .j      LDR      r0,[r4,#0x2c]
        0x00002cf6:    6829        )h      LDR      r1,[r5,#0]
        0x00002cf8:    6ac9        .j      LDR      r1,[r1,#0x2c]
        0x00002cfa:    4288        .B      CMP      r0,r1
        0x00002cfc:    d3e0        ..      BCC      0x2cc0 ; xTaskResumeAll + 60
        0x00002cfe:    61ee        .a      STR      r6,[r5,#0x1c]
        0x00002d00:    e7de        ..      B        0x2cc0 ; xTaskResumeAll + 60
        0x00002d02:    b10c        ..      CBZ      r4,0x2d08 ; xTaskResumeAll + 132
        0x00002d04:    f7fefe6a    ..j.    BL       prvResetNextTaskUnblockTime ; 0x19dc
        0x00002d08:    69ac        .i      LDR      r4,[r5,#0x18]
        0x00002d0a:    b13c        <.      CBZ      r4,0x2d1c ; xTaskResumeAll + 152
        0x00002d0c:    f7fffeca    ....    BL       xTaskIncrementTick ; 0x2aa4
        0x00002d10:    b100        ..      CBZ      r0,0x2d14 ; xTaskResumeAll + 144
        0x00002d12:    61ee        .a      STR      r6,[r5,#0x1c]
        0x00002d14:    1e64        d.      SUBS     r4,r4,#1
        0x00002d16:    d1f9        ..      BNE      0x2d0c ; xTaskResumeAll + 136
        0x00002d18:    2000        .       MOVS     r0,#0
        0x00002d1a:    61a8        .a      STR      r0,[r5,#0x18]
        0x00002d1c:    69e8        .i      LDR      r0,[r5,#0x1c]
        0x00002d1e:    b138        8.      CBZ      r0,0x2d30 ; xTaskResumeAll + 172
        0x00002d20:    4908        .I      LDR      r1,[pc,#32] ; [0x2d44] = 0xe000ed04
        0x00002d22:    2701        .'      MOVS     r7,#1
        0x00002d24:    0738        8.      LSLS     r0,r7,#28
        0x00002d26:    6008        .`      STR      r0,[r1,#0]
        0x00002d28:    f3bf8f4f    ..O.    DSB      
        0x00002d2c:    f3bf8f6f    ..o.    ISB      
        0x00002d30:    f7fff888    ....    BL       vPortExitCritical ; 0x1e44
        0x00002d34:    4638        8F      MOV      r0,r7
        0x00002d36:    e8bd87f0    ....    POP      {r4-r10,pc}
    $d
        0x00002d3a:    0000        ..      DCW    0
        0x00002d3c:    2000003c    <..     DCD    536870972
        0x00002d40:    20000194    ...     DCD    536871316
        0x00002d44:    e000ed04    ....    DCD    3758157060
    $t
    i.xTimerCreateTimerTask
    xTimerCreateTimerTask
        0x00002d48:    b51c        ..      PUSH     {r2-r4,lr}
        0x00002d4a:    f7fefbeb    ....    BL       prvCheckForValidListAndQueue ; 0x1524
        0x00002d4e:    480c        .H      LDR      r0,[pc,#48] ; [0x2d80] = 0x20000078
        0x00002d50:    6800        .h      LDR      r0,[r0,#0]
        0x00002d52:    b160        `.      CBZ      r0,0x2d6e ; xTimerCreateTimerTask + 38
        0x00002d54:    490a        .I      LDR      r1,[pc,#40] ; [0x2d80] = 0x20000078
        0x00002d56:    2002        .       MOVS     r0,#2
        0x00002d58:    1d09        ..      ADDS     r1,r1,#4
        0x00002d5a:    e9cd0100    ....    STRD     r0,r1,[sp,#0]
        0x00002d5e:    01c2        ..      LSLS     r2,r0,#7
        0x00002d60:    2300        .#      MOVS     r3,#0
        0x00002d62:    a108        ..      ADR      r1,{pc}+0x22 ; 0x2d84
        0x00002d64:    4809        .H      LDR      r0,[pc,#36] ; [0x2d8c] = 0x1ab9
        0x00002d66:    f7fffe57    ..W.    BL       xTaskCreate ; 0x2a18
        0x00002d6a:    2800        .(      CMP      r0,#0
        0x00002d6c:    d107        ..      BNE      0x2d7e ; xTimerCreateTimerTask + 54
        0x00002d6e:    2050        P       MOVS     r0,#0x50
        0x00002d70:    f3808811    ....    MSR      BASEPRI,r0
        0x00002d74:    f3bf8f4f    ..O.    DSB      
        0x00002d78:    f3bf8f6f    ..o.    ISB      
        0x00002d7c:    e7fe        ..      B        0x2d7c ; xTimerCreateTimerTask + 52
        0x00002d7e:    bd1c        ..      POP      {r2-r4,pc}
    $d
        0x00002d80:    20000078    x..     DCD    536871032
        0x00002d84:    20726d54    Tmr     DCD    544370004
        0x00002d88:    00637653    Svc.    DCD    6518355
        0x00002d8c:    00001ab9    ....    DCD    6841
    $t
    i.xTimerGenericCommand
    xTimerGenericCommand
        0x00002d90:    b5fe        ..      PUSH     {r1-r7,lr}
        0x00002d92:    461f        .F      MOV      r7,r3
        0x00002d94:    0003        ..      MOVS     r3,r0
        0x00002d96:    9e08        ..      LDR      r6,[sp,#0x20]
        0x00002d98:    f04f0000    O...    MOV      r0,#0
        0x00002d9c:    d013        ..      BEQ      0x2dc6 ; xTimerGenericCommand + 54
        0x00002d9e:    4d12        .M      LDR      r5,[pc,#72] ; [0x2de8] = 0x20000078
        0x00002da0:    682c        ,h      LDR      r4,[r5,#0]
        0x00002da2:    2c00        .,      CMP      r4,#0
        0x00002da4:    d00e        ..      BEQ      0x2dc4 ; xTimerGenericCommand + 52
        0x00002da6:    e88d000e    ....    STM      sp,{r1-r3}
        0x00002daa:    2906        .)      CMP      r1,#6
        0x00002dac:    da15        ..      BGE      0x2dda ; xTimerGenericCommand + 74
        0x00002dae:    f7fffe65    ..e.    BL       xTaskGetSchedulerState ; 0x2a7c
        0x00002db2:    2802        .(      CMP      r0,#2
        0x00002db4:    f04f0300    O...    MOV      r3,#0
        0x00002db8:    d00d        ..      BEQ      0x2dd6 ; xTimerGenericCommand + 70
        0x00002dba:    2200        ."      MOVS     r2,#0
        0x00002dbc:    4669        iF      MOV      r1,sp
        0x00002dbe:    6828        (h      LDR      r0,[r5,#0]
        0x00002dc0:    f7fffc34    ..4.    BL       xQueueGenericSend ; 0x262c
        0x00002dc4:    bdfe        ..      POP      {r1-r7,pc}
        0x00002dc6:    2050        P       MOVS     r0,#0x50
        0x00002dc8:    f3808811    ....    MSR      BASEPRI,r0
        0x00002dcc:    f3bf8f4f    ..O.    DSB      
        0x00002dd0:    f3bf8f6f    ..o.    ISB      
        0x00002dd4:    e7fe        ..      B        0x2dd4 ; xTimerGenericCommand + 68
        0x00002dd6:    4632        2F      MOV      r2,r6
        0x00002dd8:    e7f0        ..      B        0x2dbc ; xTimerGenericCommand + 44
        0x00002dda:    2300        .#      MOVS     r3,#0
        0x00002ddc:    463a        :F      MOV      r2,r7
        0x00002dde:    4669        iF      MOV      r1,sp
        0x00002de0:    4620         F      MOV      r0,r4
        0x00002de2:    f7fffcdd    ....    BL       xQueueGenericSendFromISR ; 0x27a0
        0x00002de6:    bdfe        ..      POP      {r1-r7,pc}
    $d
        0x00002de8:    20000078    x..     DCD    536871032
    $d.realdata
    .constdata
        0x00002dec:    00b71b00    ....    DCD    12000000
        0x00002df0:    00000000    ....    DCD    0
        0x00002df4:    00008000    ....    DCD    32768
        0x00002df8:    00b71b00    ....    DCD    12000000
        0x00002dfc:    00b71b00    ....    DCD    12000000
        0x00002e00:    00000000    ....    DCD    0
        0x00002e04:    00008000    ....    DCD    32768
        0x00002e08:    00b71b00    ....    DCD    12000000
        0x00002e0c:    00b71b00    ....    DCD    12000000
        0x00002e10:    00000000    ....    DCD    0
        0x00002e14:    00008000    ....    DCD    32768
        0x00002e18:    00b71b00    ....    DCD    12000000
    .constdata
        0x00002e1c:    00b71b00    ....    DCD    12000000
        0x00002e20:    00008000    ....    DCD    32768
        0x00002e24:    00000000    ....    DCD    0
        0x00002e28:    00000000    ....    DCD    0
        0x00002e2c:    00000000    ....    DCD    0
        0x00002e30:    00002710    .'..    DCD    10000
        0x00002e34:    00000000    ....    DCD    0
        0x00002e38:    00b71b00    ....    DCD    12000000
    Region$$Table$$Base
        0x00002e3c:    00002e5c    \...    DCD    11868
        0x00002e40:    20000000    ...     DCD    536870912
        0x00002e44:    000000c8    ....    DCD    200
        0x00002e48:    00000d84    ....    DCD    3460
        0x00002e4c:    00002f24    $/..    DCD    12068
        0x00002e50:    200000c8    ...     DCD    536871112
        0x00002e54:    00004930    0I..    DCD    18736
        0x00002e58:    00000d94    ....    DCD    3476
    Region$$Table$$Limit

** Section #2 'ER_RW' (SHT_PROGBITS) [SHF_ALLOC + SHF_WRITE]
    Size   : 200 bytes (alignment 4)
    Address: 0x20000000


** Section #3 'ER_ZI' (SHT_NOBITS) [SHF_ALLOC + SHF_WRITE]
    Size   : 18736 bytes (alignment 8)
    Address: 0x200000c8


** Section #4 '.debug_abbrev' (SHT_PROGBITS)
    Size   : 1476 bytes


** Section #5 '.debug_frame' (SHT_PROGBITS)
    Size   : 4376 bytes


** Section #6 '.debug_info' (SHT_PROGBITS)
    Size   : 67880 bytes


** Section #7 '.debug_line' (SHT_PROGBITS)
    Size   : 27364 bytes


** Section #8 '.debug_loc' (SHT_PROGBITS)
    Size   : 9800 bytes


** Section #9 '.debug_macinfo' (SHT_PROGBITS)
    Size   : 192108 bytes


** Section #10 '.debug_pubnames' (SHT_PROGBITS)
    Size   : 3737 bytes


** Section #11 '.symtab' (SHT_SYMTAB)
    Size   : 12272 bytes (alignment 4)
    String table #12 '.strtab'
    Last local symbol no. 483


** Section #12 '.strtab' (SHT_STRTAB)
    Size   : 10672 bytes


** Section #13 '.note' (SHT_NOTE)
    Size   : 28 bytes (alignment 4)


** Section #14 '.comment' (SHT_PROGBITS)
    Size   : 23676 bytes


** Section #15 '.shstrtab' (SHT_STRTAB)
    Size   : 156 bytes


